
bomb:     file format elf32-i386


Disassembly of section .init:

0804877c <_init>:
 804877c:	55                   	push   ebp
 804877d:	89 e5                	mov    ebp,esp
 804877f:	53                   	push   ebx
 8048780:	83 ec 04             	sub    esp,0x4
 8048783:	e8 00 00 00 00       	call   8048788 <_init+0xc>
 8048788:	5b                   	pop    ebx
 8048789:	81 c3 60 29 00 00    	add    ebx,0x2960
 804878f:	8b 93 fc ff ff ff    	mov    edx,DWORD PTR [ebx-0x4]
 8048795:	85 d2                	test   edx,edx
 8048797:	74 05                	je     804879e <_init+0x22>
 8048799:	e8 5e 00 00 00       	call   80487fc <__gmon_start__@plt>
 804879e:	e8 7d 02 00 00       	call   8048a20 <frame_dummy>
 80487a3:	e8 e8 18 00 00       	call   804a090 <__do_global_ctors_aux>
 80487a8:	58                   	pop    eax
 80487a9:	5b                   	pop    ebx
 80487aa:	c9                   	leave  
 80487ab:	c3                   	ret    

Disassembly of section .plt:

080487ac <__errno_location@plt-0x10>:
 80487ac:	ff 35 ec b0 04 08    	push   DWORD PTR ds:0x804b0ec
 80487b2:	ff 25 f0 b0 04 08    	jmp    DWORD PTR ds:0x804b0f0
 80487b8:	00 00                	add    BYTE PTR [eax],al
	...

080487bc <__errno_location@plt>:
 80487bc:	ff 25 f4 b0 04 08    	jmp    DWORD PTR ds:0x804b0f4
 80487c2:	68 00 00 00 00       	push   0x0
 80487c7:	e9 e0 ff ff ff       	jmp    80487ac <_init+0x30>

080487cc <sprintf@plt>:
 80487cc:	ff 25 f8 b0 04 08    	jmp    DWORD PTR ds:0x804b0f8
 80487d2:	68 08 00 00 00       	push   0x8
 80487d7:	e9 d0 ff ff ff       	jmp    80487ac <_init+0x30>

080487dc <connect@plt>:
 80487dc:	ff 25 fc b0 04 08    	jmp    DWORD PTR ds:0x804b0fc
 80487e2:	68 10 00 00 00       	push   0x10
 80487e7:	e9 c0 ff ff ff       	jmp    80487ac <_init+0x30>

080487ec <signal@plt>:
 80487ec:	ff 25 00 b1 04 08    	jmp    DWORD PTR ds:0x804b100
 80487f2:	68 18 00 00 00       	push   0x18
 80487f7:	e9 b0 ff ff ff       	jmp    80487ac <_init+0x30>

080487fc <__gmon_start__@plt>:
 80487fc:	ff 25 04 b1 04 08    	jmp    DWORD PTR ds:0x804b104
 8048802:	68 20 00 00 00       	push   0x20
 8048807:	e9 a0 ff ff ff       	jmp    80487ac <_init+0x30>

0804880c <__isoc99_sscanf@plt>:
 804880c:	ff 25 08 b1 04 08    	jmp    DWORD PTR ds:0x804b108
 8048812:	68 28 00 00 00       	push   0x28
 8048817:	e9 90 ff ff ff       	jmp    80487ac <_init+0x30>

0804881c <getenv@plt>:
 804881c:	ff 25 0c b1 04 08    	jmp    DWORD PTR ds:0x804b10c
 8048822:	68 30 00 00 00       	push   0x30
 8048827:	e9 80 ff ff ff       	jmp    80487ac <_init+0x30>

0804882c <write@plt>:
 804882c:	ff 25 10 b1 04 08    	jmp    DWORD PTR ds:0x804b110
 8048832:	68 38 00 00 00       	push   0x38
 8048837:	e9 70 ff ff ff       	jmp    80487ac <_init+0x30>

0804883c <fgets@plt>:
 804883c:	ff 25 14 b1 04 08    	jmp    DWORD PTR ds:0x804b114
 8048842:	68 40 00 00 00       	push   0x40
 8048847:	e9 60 ff ff ff       	jmp    80487ac <_init+0x30>

0804884c <__libc_start_main@plt>:
 804884c:	ff 25 18 b1 04 08    	jmp    DWORD PTR ds:0x804b118
 8048852:	68 48 00 00 00       	push   0x48
 8048857:	e9 50 ff ff ff       	jmp    80487ac <_init+0x30>

0804885c <read@plt>:
 804885c:	ff 25 1c b1 04 08    	jmp    DWORD PTR ds:0x804b11c
 8048862:	68 50 00 00 00       	push   0x50
 8048867:	e9 40 ff ff ff       	jmp    80487ac <_init+0x30>

0804886c <strtol@plt>:
 804886c:	ff 25 20 b1 04 08    	jmp    DWORD PTR ds:0x804b120
 8048872:	68 58 00 00 00       	push   0x58
 8048877:	e9 30 ff ff ff       	jmp    80487ac <_init+0x30>

0804887c <fflush@plt>:
 804887c:	ff 25 24 b1 04 08    	jmp    DWORD PTR ds:0x804b124
 8048882:	68 60 00 00 00       	push   0x60
 8048887:	e9 20 ff ff ff       	jmp    80487ac <_init+0x30>

0804888c <socket@plt>:
 804888c:	ff 25 28 b1 04 08    	jmp    DWORD PTR ds:0x804b128
 8048892:	68 68 00 00 00       	push   0x68
 8048897:	e9 10 ff ff ff       	jmp    80487ac <_init+0x30>

0804889c <__ctype_b_loc@plt>:
 804889c:	ff 25 2c b1 04 08    	jmp    DWORD PTR ds:0x804b12c
 80488a2:	68 70 00 00 00       	push   0x70
 80488a7:	e9 00 ff ff ff       	jmp    80487ac <_init+0x30>

080488ac <bcopy@plt>:
 80488ac:	ff 25 30 b1 04 08    	jmp    DWORD PTR ds:0x804b130
 80488b2:	68 78 00 00 00       	push   0x78
 80488b7:	e9 f0 fe ff ff       	jmp    80487ac <_init+0x30>

080488bc <memcpy@plt>:
 80488bc:	ff 25 34 b1 04 08    	jmp    DWORD PTR ds:0x804b134
 80488c2:	68 80 00 00 00       	push   0x80
 80488c7:	e9 e0 fe ff ff       	jmp    80487ac <_init+0x30>

080488cc <fopen@plt>:
 80488cc:	ff 25 38 b1 04 08    	jmp    DWORD PTR ds:0x804b138
 80488d2:	68 88 00 00 00       	push   0x88
 80488d7:	e9 d0 fe ff ff       	jmp    80487ac <_init+0x30>

080488dc <alarm@plt>:
 80488dc:	ff 25 3c b1 04 08    	jmp    DWORD PTR ds:0x804b13c
 80488e2:	68 90 00 00 00       	push   0x90
 80488e7:	e9 c0 fe ff ff       	jmp    80487ac <_init+0x30>

080488ec <strcpy@plt>:
 80488ec:	ff 25 40 b1 04 08    	jmp    DWORD PTR ds:0x804b140
 80488f2:	68 98 00 00 00       	push   0x98
 80488f7:	e9 b0 fe ff ff       	jmp    80487ac <_init+0x30>

080488fc <printf@plt>:
 80488fc:	ff 25 44 b1 04 08    	jmp    DWORD PTR ds:0x804b144
 8048902:	68 a0 00 00 00       	push   0xa0
 8048907:	e9 a0 fe ff ff       	jmp    80487ac <_init+0x30>

0804890c <strcasecmp@plt>:
 804890c:	ff 25 48 b1 04 08    	jmp    DWORD PTR ds:0x804b148
 8048912:	68 a8 00 00 00       	push   0xa8
 8048917:	e9 90 fe ff ff       	jmp    80487ac <_init+0x30>

0804891c <close@plt>:
 804891c:	ff 25 4c b1 04 08    	jmp    DWORD PTR ds:0x804b14c
 8048922:	68 b0 00 00 00       	push   0xb0
 8048927:	e9 80 fe ff ff       	jmp    80487ac <_init+0x30>

0804892c <fprintf@plt>:
 804892c:	ff 25 50 b1 04 08    	jmp    DWORD PTR ds:0x804b150
 8048932:	68 b8 00 00 00       	push   0xb8
 8048937:	e9 70 fe ff ff       	jmp    80487ac <_init+0x30>

0804893c <gethostname@plt>:
 804893c:	ff 25 54 b1 04 08    	jmp    DWORD PTR ds:0x804b154
 8048942:	68 c0 00 00 00       	push   0xc0
 8048947:	e9 60 fe ff ff       	jmp    80487ac <_init+0x30>

0804894c <sleep@plt>:
 804894c:	ff 25 58 b1 04 08    	jmp    DWORD PTR ds:0x804b158
 8048952:	68 c8 00 00 00       	push   0xc8
 8048957:	e9 50 fe ff ff       	jmp    80487ac <_init+0x30>

0804895c <puts@plt>:
 804895c:	ff 25 5c b1 04 08    	jmp    DWORD PTR ds:0x804b15c
 8048962:	68 d0 00 00 00       	push   0xd0
 8048967:	e9 40 fe ff ff       	jmp    80487ac <_init+0x30>

0804896c <gethostbyname@plt>:
 804896c:	ff 25 60 b1 04 08    	jmp    DWORD PTR ds:0x804b160
 8048972:	68 d8 00 00 00       	push   0xd8
 8048977:	e9 30 fe ff ff       	jmp    80487ac <_init+0x30>

0804897c <exit@plt>:
 804897c:	ff 25 64 b1 04 08    	jmp    DWORD PTR ds:0x804b164
 8048982:	68 e0 00 00 00       	push   0xe0
 8048987:	e9 20 fe ff ff       	jmp    80487ac <_init+0x30>

Disassembly of section .text:

08048990 <_start>:
 8048990:	31 ed                	xor    ebp,ebp
 8048992:	5e                   	pop    esi
 8048993:	89 e1                	mov    ecx,esp
 8048995:	83 e4 f0             	and    esp,0xfffffff0
 8048998:	50                   	push   eax
 8048999:	54                   	push   esp
 804899a:	52                   	push   edx
 804899b:	68 20 a0 04 08       	push   0x804a020
 80489a0:	68 30 a0 04 08       	push   0x804a030
 80489a5:	51                   	push   ecx
 80489a6:	56                   	push   esi
 80489a7:	68 44 8a 04 08       	push   0x8048a44
 80489ac:	e8 9b fe ff ff       	call   804884c <__libc_start_main@plt>
 80489b1:	f4                   	hlt    
 80489b2:	90                   	nop
 80489b3:	90                   	nop
 80489b4:	90                   	nop
 80489b5:	90                   	nop
 80489b6:	90                   	nop
 80489b7:	90                   	nop
 80489b8:	90                   	nop
 80489b9:	90                   	nop
 80489ba:	90                   	nop
 80489bb:	90                   	nop
 80489bc:	90                   	nop
 80489bd:	90                   	nop
 80489be:	90                   	nop
 80489bf:	90                   	nop

080489c0 <__do_global_dtors_aux>:
 80489c0:	55                   	push   ebp
 80489c1:	89 e5                	mov    ebp,esp
 80489c3:	53                   	push   ebx
 80489c4:	83 ec 04             	sub    esp,0x4
 80489c7:	80 3d e4 b8 04 08 00 	cmp    BYTE PTR ds:0x804b8e4,0x0
 80489ce:	75 3f                	jne    8048a0f <__do_global_dtors_aux+0x4f>
 80489d0:	a1 e8 b8 04 08       	mov    eax,ds:0x804b8e8
 80489d5:	bb 0c b0 04 08       	mov    ebx,0x804b00c
 80489da:	81 eb 08 b0 04 08    	sub    ebx,0x804b008
 80489e0:	c1 fb 02             	sar    ebx,0x2
 80489e3:	83 eb 01             	sub    ebx,0x1
 80489e6:	39 d8                	cmp    eax,ebx
 80489e8:	73 1e                	jae    8048a08 <__do_global_dtors_aux+0x48>
 80489ea:	8d b6 00 00 00 00    	lea    esi,[esi+0x0]
 80489f0:	83 c0 01             	add    eax,0x1
 80489f3:	a3 e8 b8 04 08       	mov    ds:0x804b8e8,eax
 80489f8:	ff 14 85 08 b0 04 08 	call   DWORD PTR [eax*4+0x804b008]
 80489ff:	a1 e8 b8 04 08       	mov    eax,ds:0x804b8e8
 8048a04:	39 d8                	cmp    eax,ebx
 8048a06:	72 e8                	jb     80489f0 <__do_global_dtors_aux+0x30>
 8048a08:	c6 05 e4 b8 04 08 01 	mov    BYTE PTR ds:0x804b8e4,0x1
 8048a0f:	83 c4 04             	add    esp,0x4
 8048a12:	5b                   	pop    ebx
 8048a13:	5d                   	pop    ebp
 8048a14:	c3                   	ret    
 8048a15:	8d 74 26 00          	lea    esi,[esi+eiz*1+0x0]
 8048a19:	8d bc 27 00 00 00 00 	lea    edi,[edi+eiz*1+0x0]

08048a20 <frame_dummy>:
 8048a20:	55                   	push   ebp
 8048a21:	89 e5                	mov    ebp,esp
 8048a23:	83 ec 18             	sub    esp,0x18
 8048a26:	a1 10 b0 04 08       	mov    eax,ds:0x804b010
 8048a2b:	85 c0                	test   eax,eax
 8048a2d:	74 12                	je     8048a41 <frame_dummy+0x21>
 8048a2f:	b8 00 00 00 00       	mov    eax,0x0
 8048a34:	85 c0                	test   eax,eax
 8048a36:	74 09                	je     8048a41 <frame_dummy+0x21>
 8048a38:	c7 04 24 10 b0 04 08 	mov    DWORD PTR [esp],0x804b010
 8048a3f:	ff d0                	call   eax
 8048a41:	c9                   	leave  
 8048a42:	c3                   	ret    
 8048a43:	90                   	nop

08048a44 <main>:
 8048a44:	55                   	push   ebp
 8048a45:	89 e5                	mov    ebp,esp
 8048a47:	83 e4 f0             	and    esp,0xfffffff0
 8048a4a:	56                   	push   esi
 8048a4b:	53                   	push   ebx
 8048a4c:	83 ec 18             	sub    esp,0x18
 8048a4f:	8b 45 08             	mov    eax,DWORD PTR [ebp+0x8]
 8048a52:	8b 75 0c             	mov    esi,DWORD PTR [ebp+0xc]
 8048a55:	83 f8 01             	cmp    eax,0x1
 8048a58:	75 0c                	jne    8048a66 <main+0x22>
 8048a5a:	a1 c4 b8 04 08       	mov    eax,ds:0x804b8c4
 8048a5f:	a3 f0 b8 04 08       	mov    ds:0x804b8f0,eax
 8048a64:	eb 65                	jmp    8048acb <main+0x87>
 8048a66:	83 f8 02             	cmp    eax,0x2
 8048a69:	75 42                	jne    8048aad <main+0x69>
 8048a6b:	8d 5e 04             	lea    ebx,[esi+0x4]
 8048a6e:	c7 44 24 04 e8 a0 04 	mov    DWORD PTR [esp+0x4],0x804a0e8
 8048a75:	08 
 8048a76:	8b 03                	mov    eax,DWORD PTR [ebx]
 8048a78:	89 04 24             	mov    DWORD PTR [esp],eax
 8048a7b:	e8 4c fe ff ff       	call   80488cc <fopen@plt>
 8048a80:	a3 f0 b8 04 08       	mov    ds:0x804b8f0,eax
 8048a85:	85 c0                	test   eax,eax
 8048a87:	75 42                	jne    8048acb <main+0x87>
 8048a89:	8b 03                	mov    eax,DWORD PTR [ebx]
 8048a8b:	89 44 24 08          	mov    DWORD PTR [esp+0x8],eax
 8048a8f:	8b 06                	mov    eax,DWORD PTR [esi]
 8048a91:	89 44 24 04          	mov    DWORD PTR [esp+0x4],eax
 8048a95:	c7 04 24 08 a1 04 08 	mov    DWORD PTR [esp],0x804a108
 8048a9c:	e8 5b fe ff ff       	call   80488fc <printf@plt>
 8048aa1:	c7 04 24 08 00 00 00 	mov    DWORD PTR [esp],0x8
 8048aa8:	e8 cf fe ff ff       	call   804897c <exit@plt>
 8048aad:	8b 06                	mov    eax,DWORD PTR [esi]
 8048aaf:	89 44 24 04          	mov    DWORD PTR [esp+0x4],eax
 8048ab3:	c7 04 24 44 a1 04 08 	mov    DWORD PTR [esp],0x804a144
 8048aba:	e8 3d fe ff ff       	call   80488fc <printf@plt>
 8048abf:	c7 04 24 08 00 00 00 	mov    DWORD PTR [esp],0x8
 8048ac6:	e8 b1 fe ff ff       	call   804897c <exit@plt>
 8048acb:	e8 f6 09 00 00       	call   80494c6 <initialize_bomb>
 8048ad0:	c7 04 24 80 a1 04 08 	mov    DWORD PTR [esp],0x804a180
 8048ad7:	e8 80 fe ff ff       	call   804895c <puts@plt>
 8048adc:	c7 04 24 fc a1 04 08 	mov    DWORD PTR [esp],0x804a1fc
 8048ae3:	e8 74 fe ff ff       	call   804895c <puts@plt>
 8048ae8:	e8 9c 08 00 00       	call   8049389 <read_line>
 8048aed:	89 04 24             	mov    DWORD PTR [esp],eax
 8048af0:	e8 38 05 00 00       	call   804902d <phase_1>
 8048af5:	e8 e5 06 00 00       	call   80491df <phase_defused>
 8048afa:	c7 04 24 4c a2 04 08 	mov    DWORD PTR [esp],0x804a24c
 8048b01:	e8 56 fe ff ff       	call   804895c <puts@plt>
 8048b06:	e8 7e 08 00 00       	call   8049389 <read_line>
 8048b0b:	89 04 24             	mov    DWORD PTR [esp],eax
 8048b0e:	e8 8f 02 00 00       	call   8048da2 <phase_2>
 8048b13:	e8 c7 06 00 00       	call   80491df <phase_defused>
 8048b18:	c7 04 24 98 a2 04 08 	mov    DWORD PTR [esp],0x804a298
 8048b1f:	e8 38 fe ff ff       	call   804895c <puts@plt>
 8048b24:	e8 60 08 00 00       	call   8049389 <read_line>
 8048b29:	89 04 24             	mov    DWORD PTR [esp],eax
 8048b2c:	e8 a0 03 00 00       	call   8048ed1 <phase_3>
 8048b31:	e8 a9 06 00 00       	call   80491df <phase_defused>
 8048b36:	c7 04 24 ea a0 04 08 	mov    DWORD PTR [esp],0x804a0ea
 8048b3d:	e8 1a fe ff ff       	call   804895c <puts@plt>
 8048b42:	e8 42 08 00 00       	call   8049389 <read_line>
 8048b47:	89 04 24             	mov    DWORD PTR [esp],eax
 8048b4a:	e8 10 03 00 00       	call   8048e5f <phase_4>
 8048b4f:	e8 8b 06 00 00       	call   80491df <phase_defused>
 8048b54:	c7 04 24 c8 a2 04 08 	mov    DWORD PTR [esp],0x804a2c8
 8048b5b:	e8 fc fd ff ff       	call   804895c <puts@plt>
 8048b60:	e8 24 08 00 00       	call   8049389 <read_line>
 8048b65:	89 04 24             	mov    DWORD PTR [esp],eax
 8048b68:	e8 7c 02 00 00       	call   8048de9 <phase_5>
 8048b6d:	e8 6d 06 00 00       	call   80491df <phase_defused>
 8048b72:	c7 04 24 18 a3 04 08 	mov    DWORD PTR [esp],0x804a318
 8048b79:	e8 de fd ff ff       	call   804895c <puts@plt>
 8048b7e:	e8 06 08 00 00       	call   8049389 <read_line>
 8048b83:	89 04 24             	mov    DWORD PTR [esp],eax
 8048b86:	e8 36 01 00 00       	call   8048cc1 <phase_6>
 8048b8b:	e8 4f 06 00 00       	call   80491df <phase_defused>
 8048b90:	b8 00 00 00 00       	mov    eax,0x0
 8048b95:	83 c4 18             	add    esp,0x18
 8048b98:	5b                   	pop    ebx
 8048b99:	5e                   	pop    esi
 8048b9a:	89 ec                	mov    esp,ebp
 8048b9c:	5d                   	pop    ebp
 8048b9d:	c3                   	ret    
 8048b9e:	90                   	nop
 8048b9f:	90                   	nop

08048ba0 <func4>:
 8048ba0:	55                   	push   ebp
 8048ba1:	89 e5                	mov    ebp,esp
 8048ba3:	83 ec 18             	sub    esp,0x18
 8048ba6:	89 5d f8             	mov    DWORD PTR [ebp-0x8],ebx
 8048ba9:	89 75 fc             	mov    DWORD PTR [ebp-0x4],esi
 8048bac:	8b 55 08             	mov    edx,DWORD PTR [ebp+0x8]
 8048baf:	8b 45 0c             	mov    eax,DWORD PTR [ebp+0xc]
 8048bb2:	8b 5d 10             	mov    ebx,DWORD PTR [ebp+0x10]
 8048bb5:	89 d9                	mov    ecx,ebx
 8048bb7:	29 c1                	sub    ecx,eax
 8048bb9:	89 ce                	mov    esi,ecx
 8048bbb:	c1 ee 1f             	shr    esi,0x1f
 8048bbe:	8d 0c 0e             	lea    ecx,[esi+ecx*1]
 8048bc1:	d1 f9                	sar    ecx,1
 8048bc3:	01 c1                	add    ecx,eax
 8048bc5:	39 d1                	cmp    ecx,edx
 8048bc7:	7e 17                	jle    8048be0 <func4+0x40>
 8048bc9:	83 e9 01             	sub    ecx,0x1
 8048bcc:	89 4c 24 08          	mov    DWORD PTR [esp+0x8],ecx
 8048bd0:	89 44 24 04          	mov    DWORD PTR [esp+0x4],eax
 8048bd4:	89 14 24             	mov    DWORD PTR [esp],edx
 8048bd7:	e8 c4 ff ff ff       	call   8048ba0 <func4>
 8048bdc:	01 c0                	add    eax,eax
 8048bde:	eb 20                	jmp    8048c00 <func4+0x60>
 8048be0:	b8 00 00 00 00       	mov    eax,0x0
 8048be5:	39 d1                	cmp    ecx,edx
 8048be7:	7d 17                	jge    8048c00 <func4+0x60>
 8048be9:	89 5c 24 08          	mov    DWORD PTR [esp+0x8],ebx
 8048bed:	83 c1 01             	add    ecx,0x1
 8048bf0:	89 4c 24 04          	mov    DWORD PTR [esp+0x4],ecx
 8048bf4:	89 14 24             	mov    DWORD PTR [esp],edx
 8048bf7:	e8 a4 ff ff ff       	call   8048ba0 <func4>
 8048bfc:	8d 44 00 01          	lea    eax,[eax+eax*1+0x1]
 8048c00:	8b 5d f8             	mov    ebx,DWORD PTR [ebp-0x8]
 8048c03:	8b 75 fc             	mov    esi,DWORD PTR [ebp-0x4]
 8048c06:	89 ec                	mov    esp,ebp
 8048c08:	5d                   	pop    ebp
 8048c09:	c3                   	ret    

08048c0a <fun7>:
 8048c0a:	55                   	push   ebp
 8048c0b:	89 e5                	mov    ebp,esp
 8048c0d:	53                   	push   ebx
 8048c0e:	83 ec 14             	sub    esp,0x14
 8048c11:	8b 55 08             	mov    edx,DWORD PTR [ebp+0x8]
 8048c14:	8b 4d 0c             	mov    ecx,DWORD PTR [ebp+0xc]
 8048c17:	b8 ff ff ff ff       	mov    eax,0xffffffff
 8048c1c:	85 d2                	test   edx,edx
 8048c1e:	74 35                	je     8048c55 <fun7+0x4b>
 8048c20:	8b 1a                	mov    ebx,DWORD PTR [edx]
 8048c22:	39 cb                	cmp    ebx,ecx
 8048c24:	7e 13                	jle    8048c39 <fun7+0x2f>
 8048c26:	89 4c 24 04          	mov    DWORD PTR [esp+0x4],ecx
 8048c2a:	8b 42 04             	mov    eax,DWORD PTR [edx+0x4]
 8048c2d:	89 04 24             	mov    DWORD PTR [esp],eax
 8048c30:	e8 d5 ff ff ff       	call   8048c0a <fun7>
 8048c35:	01 c0                	add    eax,eax
 8048c37:	eb 1c                	jmp    8048c55 <fun7+0x4b>
 8048c39:	b8 00 00 00 00       	mov    eax,0x0
 8048c3e:	39 cb                	cmp    ebx,ecx
 8048c40:	74 13                	je     8048c55 <fun7+0x4b>
 8048c42:	89 4c 24 04          	mov    DWORD PTR [esp+0x4],ecx
 8048c46:	8b 42 08             	mov    eax,DWORD PTR [edx+0x8]
 8048c49:	89 04 24             	mov    DWORD PTR [esp],eax
 8048c4c:	e8 b9 ff ff ff       	call   8048c0a <fun7>
 8048c51:	8d 44 00 01          	lea    eax,[eax+eax*1+0x1]
 8048c55:	83 c4 14             	add    esp,0x14
 8048c58:	5b                   	pop    ebx
 8048c59:	5d                   	pop    ebp
 8048c5a:	c3                   	ret    

08048c5b <secret_phase>:
 8048c5b:	55                   	push   ebp
 8048c5c:	89 e5                	mov    ebp,esp
 8048c5e:	53                   	push   ebx
 8048c5f:	83 ec 14             	sub    esp,0x14
 8048c62:	e8 22 07 00 00       	call   8049389 <read_line>
 8048c67:	c7 44 24 08 0a 00 00 	mov    DWORD PTR [esp+0x8],0xa
 8048c6e:	00 
 8048c6f:	c7 44 24 04 00 00 00 	mov    DWORD PTR [esp+0x4],0x0
 8048c76:	00 
 8048c77:	89 04 24             	mov    DWORD PTR [esp],eax
 8048c7a:	e8 ed fb ff ff       	call   804886c <strtol@plt>
 8048c7f:	89 c3                	mov    ebx,eax
 8048c81:	8d 40 ff             	lea    eax,[eax-0x1]
 8048c84:	3d e8 03 00 00       	cmp    eax,0x3e8
 8048c89:	76 05                	jbe    8048c90 <secret_phase+0x35>
 8048c8b:	e8 e9 05 00 00       	call   8049279 <explode_bomb>
 8048c90:	89 5c 24 04          	mov    DWORD PTR [esp+0x4],ebx
 8048c94:	c7 04 24 b0 b6 04 08 	mov    DWORD PTR [esp],0x804b6b0
 8048c9b:	e8 6a ff ff ff       	call   8048c0a <fun7>
 8048ca0:	83 f8 01             	cmp    eax,0x1
 8048ca3:	74 05                	je     8048caa <secret_phase+0x4f>
 8048ca5:	e8 cf 05 00 00       	call   8049279 <explode_bomb>
 8048caa:	c7 04 24 40 a3 04 08 	mov    DWORD PTR [esp],0x804a340
 8048cb1:	e8 a6 fc ff ff       	call   804895c <puts@plt>
 8048cb6:	e8 24 05 00 00       	call   80491df <phase_defused>
 8048cbb:	83 c4 14             	add    esp,0x14
 8048cbe:	5b                   	pop    ebx
 8048cbf:	5d                   	pop    ebp
 8048cc0:	c3                   	ret    

08048cc1 <phase_6>:
 8048cc1:	55                   	push   ebp
 8048cc2:	89 e5                	mov    ebp,esp
 8048cc4:	57                   	push   edi
 8048cc5:	56                   	push   esi
 8048cc6:	53                   	push   ebx
 8048cc7:	83 ec 5c             	sub    esp,0x5c
 8048cca:	8d 45 d0             	lea    eax,[ebp-0x30]
 8048ccd:	89 44 24 04          	mov    DWORD PTR [esp+0x4],eax
 8048cd1:	8b 45 08             	mov    eax,DWORD PTR [ebp+0x8]
 8048cd4:	89 04 24             	mov    DWORD PTR [esp],eax
 8048cd7:	e8 df 05 00 00       	call   80492bb <read_six_numbers>
 8048cdc:	be 00 00 00 00       	mov    esi,0x0
 8048ce1:	8d 7d d0             	lea    edi,[ebp-0x30]
 8048ce4:	8b 04 b7             	mov    eax,DWORD PTR [edi+esi*4]
 8048ce7:	83 e8 01             	sub    eax,0x1
 8048cea:	83 f8 05             	cmp    eax,0x5
 8048ced:	76 05                	jbe    8048cf4 <phase_6+0x33>
 8048cef:	e8 85 05 00 00       	call   8049279 <explode_bomb>
 8048cf4:	83 c6 01             	add    esi,0x1
 8048cf7:	83 fe 06             	cmp    esi,0x6
 8048cfa:	74 22                	je     8048d1e <phase_6+0x5d>
 8048cfc:	8d 1c b7             	lea    ebx,[edi+esi*4]
 8048cff:	89 75 b4             	mov    DWORD PTR [ebp-0x4c],esi
 8048d02:	8b 44 b7 fc          	mov    eax,DWORD PTR [edi+esi*4-0x4]
 8048d06:	3b 03                	cmp    eax,DWORD PTR [ebx]
 8048d08:	75 05                	jne    8048d0f <phase_6+0x4e>
 8048d0a:	e8 6a 05 00 00       	call   8049279 <explode_bomb>
 8048d0f:	83 45 b4 01          	add    DWORD PTR [ebp-0x4c],0x1
 8048d13:	83 c3 04             	add    ebx,0x4
 8048d16:	83 7d b4 05          	cmp    DWORD PTR [ebp-0x4c],0x5
 8048d1a:	7e e6                	jle    8048d02 <phase_6+0x41>
 8048d1c:	eb c6                	jmp    8048ce4 <phase_6+0x23>
 8048d1e:	bb 00 00 00 00       	mov    ebx,0x0
 8048d23:	8d 7d d0             	lea    edi,[ebp-0x30]
 8048d26:	eb 16                	jmp    8048d3e <phase_6+0x7d>
 8048d28:	8b 52 08             	mov    edx,DWORD PTR [edx+0x8]
 8048d2b:	83 c0 01             	add    eax,0x1
 8048d2e:	39 c8                	cmp    eax,ecx
 8048d30:	75 f6                	jne    8048d28 <phase_6+0x67>
 8048d32:	89 54 b5 b8          	mov    DWORD PTR [ebp+esi*4-0x48],edx
 8048d36:	83 c3 01             	add    ebx,0x1
 8048d39:	83 fb 06             	cmp    ebx,0x6
 8048d3c:	74 16                	je     8048d54 <phase_6+0x93>
 8048d3e:	89 de                	mov    esi,ebx
 8048d40:	8b 0c 9f             	mov    ecx,DWORD PTR [edi+ebx*4]
 8048d43:	b8 01 00 00 00       	mov    eax,0x1
 8048d48:	ba fc b5 04 08       	mov    edx,0x804b5fc
 8048d4d:	83 f9 01             	cmp    ecx,0x1
 8048d50:	7f d6                	jg     8048d28 <phase_6+0x67>
 8048d52:	eb de                	jmp    8048d32 <phase_6+0x71>
 8048d54:	8b 5d b8             	mov    ebx,DWORD PTR [ebp-0x48]
 8048d57:	8b 45 bc             	mov    eax,DWORD PTR [ebp-0x44]
 8048d5a:	89 43 08             	mov    DWORD PTR [ebx+0x8],eax
 8048d5d:	8b 55 c0             	mov    edx,DWORD PTR [ebp-0x40]
 8048d60:	89 50 08             	mov    DWORD PTR [eax+0x8],edx
 8048d63:	8b 45 c4             	mov    eax,DWORD PTR [ebp-0x3c]
 8048d66:	89 42 08             	mov    DWORD PTR [edx+0x8],eax
 8048d69:	8b 55 c8             	mov    edx,DWORD PTR [ebp-0x38]
 8048d6c:	89 50 08             	mov    DWORD PTR [eax+0x8],edx
 8048d6f:	8b 45 cc             	mov    eax,DWORD PTR [ebp-0x34]
 8048d72:	89 42 08             	mov    DWORD PTR [edx+0x8],eax
 8048d75:	c7 40 08 00 00 00 00 	mov    DWORD PTR [eax+0x8],0x0
 8048d7c:	be 00 00 00 00       	mov    esi,0x0
 8048d81:	8b 43 08             	mov    eax,DWORD PTR [ebx+0x8]
 8048d84:	8b 13                	mov    edx,DWORD PTR [ebx]
 8048d86:	3b 10                	cmp    edx,DWORD PTR [eax]
 8048d88:	7e 05                	jle    8048d8f <phase_6+0xce>
 8048d8a:	e8 ea 04 00 00       	call   8049279 <explode_bomb>
 8048d8f:	8b 5b 08             	mov    ebx,DWORD PTR [ebx+0x8]
 8048d92:	83 c6 01             	add    esi,0x1
 8048d95:	83 fe 05             	cmp    esi,0x5
 8048d98:	75 e7                	jne    8048d81 <phase_6+0xc0>
 8048d9a:	83 c4 5c             	add    esp,0x5c
 8048d9d:	5b                   	pop    ebx
 8048d9e:	5e                   	pop    esi
 8048d9f:	5f                   	pop    edi
 8048da0:	5d                   	pop    ebp
 8048da1:	c3                   	ret    

08048da2 <phase_2>:
 8048da2:	55                   	push   ebp
 8048da3:	89 e5                	mov    ebp,esp
 8048da5:	56                   	push   esi
 8048da6:	53                   	push   ebx
 8048da7:	83 ec 30             	sub    esp,0x30
 8048daa:	8d 45 e0             	lea    eax,[ebp-0x20]
 8048dad:	89 44 24 04          	mov    DWORD PTR [esp+0x4],eax
 8048db1:	8b 45 08             	mov    eax,DWORD PTR [ebp+0x8]
 8048db4:	89 04 24             	mov    DWORD PTR [esp],eax
 8048db7:	e8 ff 04 00 00       	call   80492bb <read_six_numbers>
 8048dbc:	83 7d e0 01          	cmp    DWORD PTR [ebp-0x20],0x1
 8048dc0:	74 05                	je     8048dc7 <phase_2+0x25>
 8048dc2:	e8 b2 04 00 00       	call   8049279 <explode_bomb>
 8048dc7:	8d 5d e4             	lea    ebx,[ebp-0x1c]
 8048dca:	8d 75 f8             	lea    esi,[ebp-0x8]
 8048dcd:	8b 43 fc             	mov    eax,DWORD PTR [ebx-0x4]
 8048dd0:	01 c0                	add    eax,eax
 8048dd2:	39 03                	cmp    DWORD PTR [ebx],eax
 8048dd4:	74 05                	je     8048ddb <phase_2+0x39>
 8048dd6:	e8 9e 04 00 00       	call   8049279 <explode_bomb>
 8048ddb:	83 c3 04             	add    ebx,0x4
 8048dde:	39 f3                	cmp    ebx,esi
 8048de0:	75 eb                	jne    8048dcd <phase_2+0x2b>
 8048de2:	83 c4 30             	add    esp,0x30
 8048de5:	5b                   	pop    ebx
 8048de6:	5e                   	pop    esi
 8048de7:	5d                   	pop    ebp
 8048de8:	c3                   	ret    

08048de9 <phase_5>:
 8048de9:	55                   	push   ebp
 8048dea:	89 e5                	mov    ebp,esp
 8048dec:	56                   	push   esi
 8048ded:	53                   	push   ebx
 8048dee:	83 ec 20             	sub    esp,0x20
 8048df1:	8d 45 f0             	lea    eax,[ebp-0x10]
 8048df4:	89 44 24 0c          	mov    DWORD PTR [esp+0xc],eax
 8048df8:	8d 45 f4             	lea    eax,[ebp-0xc]
 8048dfb:	89 44 24 08          	mov    DWORD PTR [esp+0x8],eax
 8048dff:	c7 44 24 04 75 a4 04 	mov    DWORD PTR [esp+0x4],0x804a475
 8048e06:	08 
 8048e07:	8b 45 08             	mov    eax,DWORD PTR [ebp+0x8]
 8048e0a:	89 04 24             	mov    DWORD PTR [esp],eax
 8048e0d:	e8 fa f9 ff ff       	call   804880c <__isoc99_sscanf@plt>
 8048e12:	83 f8 01             	cmp    eax,0x1
 8048e15:	7f 05                	jg     8048e1c <phase_5+0x33>
 8048e17:	e8 5d 04 00 00       	call   8049279 <explode_bomb>
 8048e1c:	8b 45 f4             	mov    eax,DWORD PTR [ebp-0xc]
 8048e1f:	83 e0 0f             	and    eax,0xf
 8048e22:	89 45 f4             	mov    DWORD PTR [ebp-0xc],eax
 8048e25:	83 f8 0f             	cmp    eax,0xf
 8048e28:	74 29                	je     8048e53 <phase_5+0x6a>
 8048e2a:	b9 00 00 00 00       	mov    ecx,0x0
 8048e2f:	ba 00 00 00 00       	mov    edx,0x0
 8048e34:	bb e0 a3 04 08       	mov    ebx,0x804a3e0
 8048e39:	83 c2 01             	add    edx,0x1
 8048e3c:	8b 04 83             	mov    eax,DWORD PTR [ebx+eax*4]
 8048e3f:	01 c1                	add    ecx,eax
 8048e41:	83 f8 0f             	cmp    eax,0xf
 8048e44:	75 f3                	jne    8048e39 <phase_5+0x50>
 8048e46:	89 45 f4             	mov    DWORD PTR [ebp-0xc],eax
 8048e49:	83 fa 0f             	cmp    edx,0xf
 8048e4c:	75 05                	jne    8048e53 <phase_5+0x6a>
 8048e4e:	39 4d f0             	cmp    DWORD PTR [ebp-0x10],ecx
 8048e51:	74 05                	je     8048e58 <phase_5+0x6f>
 8048e53:	e8 21 04 00 00       	call   8049279 <explode_bomb>
 8048e58:	83 c4 20             	add    esp,0x20
 8048e5b:	5b                   	pop    ebx
 8048e5c:	5e                   	pop    esi
 8048e5d:	5d                   	pop    ebp
 8048e5e:	c3                   	ret    

08048e5f <phase_4>:
 8048e5f:	55                   	push   ebp
 8048e60:	89 e5                	mov    ebp,esp
 8048e62:	83 ec 28             	sub    esp,0x28
 8048e65:	8d 45 f0             	lea    eax,[ebp-0x10]
 8048e68:	89 44 24 0c          	mov    DWORD PTR [esp+0xc],eax
 8048e6c:	8d 45 f4             	lea    eax,[ebp-0xc]
 8048e6f:	89 44 24 08          	mov    DWORD PTR [esp+0x8],eax
 8048e73:	c7 44 24 04 75 a4 04 	mov    DWORD PTR [esp+0x4],0x804a475
 8048e7a:	08 
 8048e7b:	8b 45 08             	mov    eax,DWORD PTR [ebp+0x8]
 8048e7e:	89 04 24             	mov    DWORD PTR [esp],eax
 8048e81:	e8 86 f9 ff ff       	call   804880c <__isoc99_sscanf@plt>
 8048e86:	83 f8 02             	cmp    eax,0x2
 8048e89:	75 0c                	jne    8048e97 <phase_4+0x38>
 8048e8b:	8b 45 f4             	mov    eax,DWORD PTR [ebp-0xc]
 8048e8e:	85 c0                	test   eax,eax
 8048e90:	78 05                	js     8048e97 <phase_4+0x38>
 8048e92:	83 f8 0e             	cmp    eax,0xe
 8048e95:	7e 05                	jle    8048e9c <phase_4+0x3d>
 8048e97:	e8 dd 03 00 00       	call   8049279 <explode_bomb>
 8048e9c:	c7 44 24 08 0e 00 00 	mov    DWORD PTR [esp+0x8],0xe
 8048ea3:	00 
 8048ea4:	c7 44 24 04 00 00 00 	mov    DWORD PTR [esp+0x4],0x0
 8048eab:	00 
 8048eac:	8b 45 f4             	mov    eax,DWORD PTR [ebp-0xc]
 8048eaf:	89 04 24             	mov    DWORD PTR [esp],eax
 8048eb2:	e8 e9 fc ff ff       	call   8048ba0 <func4>
 8048eb7:	83 f8 02             	cmp    eax,0x2
 8048eba:	75 06                	jne    8048ec2 <phase_4+0x63>
 8048ebc:	83 7d f0 02          	cmp    DWORD PTR [ebp-0x10],0x2
 8048ec0:	74 0b                	je     8048ecd <phase_4+0x6e>
 8048ec2:	8d b6 00 00 00 00    	lea    esi,[esi+0x0]
 8048ec8:	e8 ac 03 00 00       	call   8049279 <explode_bomb>
 8048ecd:	c9                   	leave  
 8048ece:	66 90                	xchg   ax,ax
 8048ed0:	c3                   	ret    

08048ed1 <phase_3>:
 8048ed1:	55                   	push   ebp
 8048ed2:	89 e5                	mov    ebp,esp
 8048ed4:	83 ec 38             	sub    esp,0x38
 8048ed7:	8d 45 f0             	lea    eax,[ebp-0x10]
 8048eda:	89 44 24 10          	mov    DWORD PTR [esp+0x10],eax
 8048ede:	8d 45 ef             	lea    eax,[ebp-0x11]
 8048ee1:	89 44 24 0c          	mov    DWORD PTR [esp+0xc],eax
 8048ee5:	8d 45 f4             	lea    eax,[ebp-0xc]
 8048ee8:	89 44 24 08          	mov    DWORD PTR [esp+0x8],eax
 8048eec:	c7 44 24 04 b6 a3 04 	mov    DWORD PTR [esp+0x4],0x804a3b6
 8048ef3:	08 
 8048ef4:	8b 45 08             	mov    eax,DWORD PTR [ebp+0x8]
 8048ef7:	89 04 24             	mov    DWORD PTR [esp],eax
 8048efa:	e8 0d f9 ff ff       	call   804880c <__isoc99_sscanf@plt>
 8048eff:	83 f8 02             	cmp    eax,0x2
 8048f02:	7f 05                	jg     8048f09 <phase_3+0x38>
 8048f04:	e8 70 03 00 00       	call   8049279 <explode_bomb>
 8048f09:	83 7d f4 07          	cmp    DWORD PTR [ebp-0xc],0x7
 8048f0d:	8d 76 00             	lea    esi,[esi+0x0]
 8048f10:	0f 87 f8 00 00 00    	ja     804900e <phase_3+0x13d>
 8048f16:	8b 45 f4             	mov    eax,DWORD PTR [ebp-0xc]
 8048f19:	ff 24 85 c0 a3 04 08 	jmp    DWORD PTR [eax*4+0x804a3c0]
 8048f20:	b8 64 00 00 00       	mov    eax,0x64
 8048f25:	81 7d f0 10 01 00 00 	cmp    DWORD PTR [ebp-0x10],0x110
 8048f2c:	0f 84 ef 00 00 00    	je     8049021 <phase_3+0x150>
 8048f32:	e8 42 03 00 00       	call   8049279 <explode_bomb>
 8048f37:	b8 64 00 00 00       	mov    eax,0x64
 8048f3c:	e9 e0 00 00 00       	jmp    8049021 <phase_3+0x150>
 8048f41:	81 7d f0 a3 02 00 00 	cmp    DWORD PTR [ebp-0x10],0x2a3
 8048f48:	0f 84 ce 00 00 00    	je     804901c <phase_3+0x14b>
 8048f4e:	66 90                	xchg   ax,ax
 8048f50:	e8 24 03 00 00       	call   8049279 <explode_bomb>
 8048f55:	b8 67 00 00 00       	mov    eax,0x67
 8048f5a:	e9 c2 00 00 00       	jmp    8049021 <phase_3+0x150>
 8048f5f:	b8 6f 00 00 00       	mov    eax,0x6f
 8048f64:	81 7d f0 65 03 00 00 	cmp    DWORD PTR [ebp-0x10],0x365
 8048f6b:	0f 84 b0 00 00 00    	je     8049021 <phase_3+0x150>
 8048f71:	e8 03 03 00 00       	call   8049279 <explode_bomb>
 8048f76:	b8 6f 00 00 00       	mov    eax,0x6f
 8048f7b:	e9 a1 00 00 00       	jmp    8049021 <phase_3+0x150>
 8048f80:	81 7d f0 41 03 00 00 	cmp    DWORD PTR [ebp-0x10],0x341
 8048f87:	0f 84 8f 00 00 00    	je     804901c <phase_3+0x14b>
 8048f8d:	8d 76 00             	lea    esi,[esi+0x0]
 8048f90:	e8 e4 02 00 00       	call   8049279 <explode_bomb>
 8048f95:	b8 67 00 00 00       	mov    eax,0x67
 8048f9a:	e9 82 00 00 00       	jmp    8049021 <phase_3+0x150>
 8048f9f:	b8 69 00 00 00       	mov    eax,0x69
 8048fa4:	81 7d f0 34 02 00 00 	cmp    DWORD PTR [ebp-0x10],0x234
 8048fab:	74 74                	je     8049021 <phase_3+0x150>
 8048fad:	8d 76 00             	lea    esi,[esi+0x0]
 8048fb0:	e8 c4 02 00 00       	call   8049279 <explode_bomb>
 8048fb5:	b8 69 00 00 00       	mov    eax,0x69
 8048fba:	eb 65                	jmp    8049021 <phase_3+0x150>
 8048fbc:	b8 74 00 00 00       	mov    eax,0x74
 8048fc1:	81 7d f0 99 03 00 00 	cmp    DWORD PTR [ebp-0x10],0x399
 8048fc8:	74 57                	je     8049021 <phase_3+0x150>
 8048fca:	e8 aa 02 00 00       	call   8049279 <explode_bomb>
 8048fcf:	b8 74 00 00 00       	mov    eax,0x74
 8048fd4:	eb 4b                	jmp    8049021 <phase_3+0x150>
 8048fd6:	b8 76 00 00 00       	mov    eax,0x76
 8048fdb:	81 7d f0 99 00 00 00 	cmp    DWORD PTR [ebp-0x10],0x99
 8048fe2:	74 3d                	je     8049021 <phase_3+0x150>
 8048fe4:	e8 90 02 00 00       	call   8049279 <explode_bomb>
 8048fe9:	b8 76 00 00 00       	mov    eax,0x76
 8048fee:	66 90                	xchg   ax,ax
 8048ff0:	eb 2f                	jmp    8049021 <phase_3+0x150>
 8048ff2:	b8 66 00 00 00       	mov    eax,0x66
 8048ff7:	81 7d f0 09 02 00 00 	cmp    DWORD PTR [ebp-0x10],0x209
 8048ffe:	66 90                	xchg   ax,ax
 8049000:	74 1f                	je     8049021 <phase_3+0x150>
 8049002:	e8 72 02 00 00       	call   8049279 <explode_bomb>
 8049007:	b8 66 00 00 00       	mov    eax,0x66
 804900c:	eb 13                	jmp    8049021 <phase_3+0x150>
 804900e:	66 90                	xchg   ax,ax
 8049010:	e8 64 02 00 00       	call   8049279 <explode_bomb>
 8049015:	b8 67 00 00 00       	mov    eax,0x67
 804901a:	eb 05                	jmp    8049021 <phase_3+0x150>
 804901c:	b8 67 00 00 00       	mov    eax,0x67
 8049021:	3a 45 ef             	cmp    al,BYTE PTR [ebp-0x11]
 8049024:	74 05                	je     804902b <phase_3+0x15a>
 8049026:	e8 4e 02 00 00       	call   8049279 <explode_bomb>
 804902b:	c9                   	leave  
 804902c:	c3                   	ret    

0804902d <phase_1>:
 804902d:	55                   	push   ebp
 804902e:	89 e5                	mov    ebp,esp
 8049030:	83 ec 18             	sub    esp,0x18
 8049033:	c7 44 24 04 84 a3 04 	mov    DWORD PTR [esp+0x4],0x804a384
 804903a:	08 
 804903b:	8b 45 08             	mov    eax,DWORD PTR [ebp+0x8]
 804903e:	89 04 24             	mov    DWORD PTR [esp],eax
 8049041:	e8 35 00 00 00       	call   804907b <strings_not_equal>
 8049046:	85 c0                	test   eax,eax
 8049048:	74 05                	je     804904f <phase_1+0x22>
 804904a:	e8 2a 02 00 00       	call   8049279 <explode_bomb>
 804904f:	c9                   	leave  
 8049050:	c3                   	ret    
 8049051:	90                   	nop
 8049052:	90                   	nop
 8049053:	90                   	nop
 8049054:	90                   	nop
 8049055:	90                   	nop
 8049056:	90                   	nop
 8049057:	90                   	nop
 8049058:	90                   	nop
 8049059:	90                   	nop
 804905a:	90                   	nop
 804905b:	90                   	nop
 804905c:	90                   	nop
 804905d:	90                   	nop
 804905e:	90                   	nop
 804905f:	90                   	nop

08049060 <string_length>:
 8049060:	55                   	push   ebp
 8049061:	89 e5                	mov    ebp,esp
 8049063:	8b 55 08             	mov    edx,DWORD PTR [ebp+0x8]
 8049066:	b8 00 00 00 00       	mov    eax,0x0
 804906b:	80 3a 00             	cmp    BYTE PTR [edx],0x0
 804906e:	74 09                	je     8049079 <string_length+0x19>
 8049070:	83 c0 01             	add    eax,0x1
 8049073:	80 3c 02 00          	cmp    BYTE PTR [edx+eax*1],0x0
 8049077:	75 f7                	jne    8049070 <string_length+0x10>
 8049079:	5d                   	pop    ebp
 804907a:	c3                   	ret    

0804907b <strings_not_equal>:
 804907b:	55                   	push   ebp
 804907c:	89 e5                	mov    ebp,esp
 804907e:	57                   	push   edi
 804907f:	56                   	push   esi
 8049080:	53                   	push   ebx
 8049081:	83 ec 04             	sub    esp,0x4
 8049084:	8b 5d 08             	mov    ebx,DWORD PTR [ebp+0x8]
 8049087:	8b 75 0c             	mov    esi,DWORD PTR [ebp+0xc]
 804908a:	89 1c 24             	mov    DWORD PTR [esp],ebx
 804908d:	e8 ce ff ff ff       	call   8049060 <string_length>
 8049092:	89 c7                	mov    edi,eax
 8049094:	89 34 24             	mov    DWORD PTR [esp],esi
 8049097:	e8 c4 ff ff ff       	call   8049060 <string_length>
 804909c:	39 c7                	cmp    edi,eax
 804909e:	75 29                	jne    80490c9 <strings_not_equal+0x4e>
 80490a0:	0f b6 13             	movzx  edx,BYTE PTR [ebx]
 80490a3:	84 d2                	test   dl,dl
 80490a5:	74 2b                	je     80490d2 <strings_not_equal+0x57>
 80490a7:	b8 00 00 00 00       	mov    eax,0x0
 80490ac:	3a 16                	cmp    dl,BYTE PTR [esi]
 80490ae:	74 0e                	je     80490be <strings_not_equal+0x43>
 80490b0:	eb 17                	jmp    80490c9 <strings_not_equal+0x4e>
 80490b2:	0f b6 4c 06 01       	movzx  ecx,BYTE PTR [esi+eax*1+0x1]
 80490b7:	83 c0 01             	add    eax,0x1
 80490ba:	38 ca                	cmp    dl,cl
 80490bc:	75 0b                	jne    80490c9 <strings_not_equal+0x4e>
 80490be:	0f b6 54 03 01       	movzx  edx,BYTE PTR [ebx+eax*1+0x1]
 80490c3:	84 d2                	test   dl,dl
 80490c5:	75 eb                	jne    80490b2 <strings_not_equal+0x37>
 80490c7:	eb 09                	jmp    80490d2 <strings_not_equal+0x57>
 80490c9:	b8 01 00 00 00       	mov    eax,0x1
 80490ce:	66 90                	xchg   ax,ax
 80490d0:	eb 05                	jmp    80490d7 <strings_not_equal+0x5c>
 80490d2:	b8 00 00 00 00       	mov    eax,0x0
 80490d7:	83 c4 04             	add    esp,0x4
 80490da:	5b                   	pop    ebx
 80490db:	5e                   	pop    esi
 80490dc:	5f                   	pop    edi
 80490dd:	5d                   	pop    ebp
 80490de:	c3                   	ret    

080490df <initialize_bomb_solve>:
 80490df:	55                   	push   ebp
 80490e0:	89 e5                	mov    ebp,esp
 80490e2:	5d                   	pop    ebp
 80490e3:	c3                   	ret    

080490e4 <invalid_phase>:
 80490e4:	55                   	push   ebp
 80490e5:	89 e5                	mov    ebp,esp
 80490e7:	83 ec 18             	sub    esp,0x18
 80490ea:	8b 45 08             	mov    eax,DWORD PTR [ebp+0x8]
 80490ed:	89 44 24 04          	mov    DWORD PTR [esp+0x4],eax
 80490f1:	c7 04 24 20 a4 04 08 	mov    DWORD PTR [esp],0x804a420
 80490f8:	e8 ff f7 ff ff       	call   80488fc <printf@plt>
 80490fd:	c7 04 24 08 00 00 00 	mov    DWORD PTR [esp],0x8
 8049104:	e8 73 f8 ff ff       	call   804897c <exit@plt>

08049109 <send_msg>:
 8049109:	55                   	push   ebp
 804910a:	89 e5                	mov    ebp,esp
 804910c:	57                   	push   edi
 804910d:	53                   	push   ebx
 804910e:	81 ec 20 40 00 00    	sub    esp,0x4020
 8049114:	8b 15 ec b8 04 08    	mov    edx,DWORD PTR ds:0x804b8ec
 804911a:	8d 5c 92 fb          	lea    ebx,[edx+edx*4-0x5]
 804911e:	c1 e3 04             	shl    ebx,0x4
 8049121:	81 c3 00 b9 04 08    	add    ebx,0x804b900
 8049127:	89 df                	mov    edi,ebx
 8049129:	b8 00 00 00 00       	mov    eax,0x0
 804912e:	b9 ff ff ff ff       	mov    ecx,0xffffffff
 8049133:	f2 ae                	repnz scas al,BYTE PTR es:[edi]
 8049135:	f7 d1                	not    ecx
 8049137:	83 c1 63             	add    ecx,0x63
 804913a:	81 f9 00 20 00 00    	cmp    ecx,0x2000
 8049140:	76 18                	jbe    804915a <send_msg+0x51>
 8049142:	c7 04 24 dc a5 04 08 	mov    DWORD PTR [esp],0x804a5dc
 8049149:	e8 ae f7 ff ff       	call   80488fc <printf@plt>
 804914e:	c7 04 24 08 00 00 00 	mov    DWORD PTR [esp],0x8
 8049155:	e8 22 f8 ff ff       	call   804897c <exit@plt>
 804915a:	b8 3a a4 04 08       	mov    eax,0x804a43a
 804915f:	83 7d 08 00          	cmp    DWORD PTR [ebp+0x8],0x0
 8049163:	75 05                	jne    804916a <send_msg+0x61>
 8049165:	b8 31 a4 04 08       	mov    eax,0x804a431
 804916a:	89 5c 24 14          	mov    DWORD PTR [esp+0x14],ebx
 804916e:	89 54 24 10          	mov    DWORD PTR [esp+0x10],edx
 8049172:	89 44 24 0c          	mov    DWORD PTR [esp+0xc],eax
 8049176:	a1 a0 b1 04 08       	mov    eax,ds:0x804b1a0
 804917b:	89 44 24 08          	mov    DWORD PTR [esp+0x8],eax
 804917f:	c7 44 24 04 42 a4 04 	mov    DWORD PTR [esp+0x4],0x804a442
 8049186:	08 
 8049187:	8d 9d f8 df ff ff    	lea    ebx,[ebp-0x2008]
 804918d:	89 1c 24             	mov    DWORD PTR [esp],ebx
 8049190:	e8 37 f6 ff ff       	call   80487cc <sprintf@plt>
 8049195:	8d 85 f8 bf ff ff    	lea    eax,[ebp-0x4008]
 804919b:	89 44 24 0c          	mov    DWORD PTR [esp+0xc],eax
 804919f:	c7 44 24 08 00 00 00 	mov    DWORD PTR [esp+0x8],0x0
 80491a6:	00 
 80491a7:	89 5c 24 04          	mov    DWORD PTR [esp+0x4],ebx
 80491ab:	c7 04 24 c0 b1 04 08 	mov    DWORD PTR [esp],0x804b1c0
 80491b2:	e8 ae 0d 00 00       	call   8049f65 <driver_post>
 80491b7:	85 c0                	test   eax,eax
 80491b9:	79 1a                	jns    80491d5 <send_msg+0xcc>
 80491bb:	8d 85 f8 bf ff ff    	lea    eax,[ebp-0x4008]
 80491c1:	89 04 24             	mov    DWORD PTR [esp],eax
 80491c4:	e8 93 f7 ff ff       	call   804895c <puts@plt>
 80491c9:	c7 04 24 00 00 00 00 	mov    DWORD PTR [esp],0x0
 80491d0:	e8 a7 f7 ff ff       	call   804897c <exit@plt>
 80491d5:	81 c4 20 40 00 00    	add    esp,0x4020
 80491db:	5b                   	pop    ebx
 80491dc:	5f                   	pop    edi
 80491dd:	5d                   	pop    ebp
 80491de:	c3                   	ret    

080491df <phase_defused>:
 80491df:	55                   	push   ebp
 80491e0:	89 e5                	mov    ebp,esp
 80491e2:	81 ec 88 00 00 00    	sub    esp,0x88
 80491e8:	c7 04 24 01 00 00 00 	mov    DWORD PTR [esp],0x1
 80491ef:	e8 15 ff ff ff       	call   8049109 <send_msg>
 80491f4:	83 3d ec b8 04 08 06 	cmp    DWORD PTR ds:0x804b8ec,0x6
 80491fb:	75 7a                	jne    8049277 <phase_defused+0x98>
 80491fd:	8d 45 a8             	lea    eax,[ebp-0x58]
 8049200:	89 44 24 10          	mov    DWORD PTR [esp+0x10],eax
 8049204:	8d 45 a0             	lea    eax,[ebp-0x60]
 8049207:	89 44 24 0c          	mov    DWORD PTR [esp+0xc],eax
 804920b:	8d 45 a4             	lea    eax,[ebp-0x5c]
 804920e:	89 44 24 08          	mov    DWORD PTR [esp+0x8],eax
 8049212:	c7 44 24 04 4e a4 04 	mov    DWORD PTR [esp+0x4],0x804a44e
 8049219:	08 
 804921a:	c7 04 24 f0 b9 04 08 	mov    DWORD PTR [esp],0x804b9f0
 8049221:	e8 e6 f5 ff ff       	call   804880c <__isoc99_sscanf@plt>
 8049226:	83 f8 03             	cmp    eax,0x3
 8049229:	75 34                	jne    804925f <phase_defused+0x80>
 804922b:	c7 44 24 04 57 a4 04 	mov    DWORD PTR [esp+0x4],0x804a457
 8049232:	08 
 8049233:	8d 45 a8             	lea    eax,[ebp-0x58]
 8049236:	89 04 24             	mov    DWORD PTR [esp],eax
 8049239:	e8 3d fe ff ff       	call   804907b <strings_not_equal>
 804923e:	85 c0                	test   eax,eax
 8049240:	75 1d                	jne    804925f <phase_defused+0x80>
 8049242:	c7 04 24 28 a6 04 08 	mov    DWORD PTR [esp],0x804a628
 8049249:	e8 0e f7 ff ff       	call   804895c <puts@plt>
 804924e:	c7 04 24 6c a6 04 08 	mov    DWORD PTR [esp],0x804a66c
 8049255:	e8 02 f7 ff ff       	call   804895c <puts@plt>
 804925a:	e8 fc f9 ff ff       	call   8048c5b <secret_phase>
 804925f:	c7 04 24 b4 a6 04 08 	mov    DWORD PTR [esp],0x804a6b4
 8049266:	e8 f1 f6 ff ff       	call   804895c <puts@plt>
 804926b:	c7 04 24 f4 a6 04 08 	mov    DWORD PTR [esp],0x804a6f4
 8049272:	e8 e5 f6 ff ff       	call   804895c <puts@plt>
 8049277:	c9                   	leave  
 8049278:	c3                   	ret    

08049279 <explode_bomb>:
 8049279:	55                   	push   ebp
 804927a:	89 e5                	mov    ebp,esp
 804927c:	83 ec 18             	sub    esp,0x18
 804927f:	c7 04 24 5e a4 04 08 	mov    DWORD PTR [esp],0x804a45e
 8049286:	e8 d1 f6 ff ff       	call   804895c <puts@plt>
 804928b:	c7 04 24 58 a7 04 08 	mov    DWORD PTR [esp],0x804a758
 8049292:	e8 c5 f6 ff ff       	call   804895c <puts@plt>
 8049297:	c7 04 24 00 00 00 00 	mov    DWORD PTR [esp],0x0
 804929e:	e8 66 fe ff ff       	call   8049109 <send_msg>
 80492a3:	c7 04 24 7c a7 04 08 	mov    DWORD PTR [esp],0x804a77c
 80492aa:	e8 ad f6 ff ff       	call   804895c <puts@plt>
 80492af:	c7 04 24 08 00 00 00 	mov    DWORD PTR [esp],0x8
 80492b6:	e8 c1 f6 ff ff       	call   804897c <exit@plt>

080492bb <read_six_numbers>:
 80492bb:	55                   	push   ebp
 80492bc:	89 e5                	mov    ebp,esp
 80492be:	83 ec 28             	sub    esp,0x28
 80492c1:	8b 45 0c             	mov    eax,DWORD PTR [ebp+0xc]
 80492c4:	8d 50 14             	lea    edx,[eax+0x14]
 80492c7:	89 54 24 1c          	mov    DWORD PTR [esp+0x1c],edx
 80492cb:	8d 50 10             	lea    edx,[eax+0x10]
 80492ce:	89 54 24 18          	mov    DWORD PTR [esp+0x18],edx
 80492d2:	8d 50 0c             	lea    edx,[eax+0xc]
 80492d5:	89 54 24 14          	mov    DWORD PTR [esp+0x14],edx
 80492d9:	8d 50 08             	lea    edx,[eax+0x8]
 80492dc:	89 54 24 10          	mov    DWORD PTR [esp+0x10],edx
 80492e0:	8d 50 04             	lea    edx,[eax+0x4]
 80492e3:	89 54 24 0c          	mov    DWORD PTR [esp+0xc],edx
 80492e7:	89 44 24 08          	mov    DWORD PTR [esp+0x8],eax
 80492eb:	c7 44 24 04 69 a4 04 	mov    DWORD PTR [esp+0x4],0x804a469
 80492f2:	08 
 80492f3:	8b 45 08             	mov    eax,DWORD PTR [ebp+0x8]
 80492f6:	89 04 24             	mov    DWORD PTR [esp],eax
 80492f9:	e8 0e f5 ff ff       	call   804880c <__isoc99_sscanf@plt>
 80492fe:	83 f8 05             	cmp    eax,0x5
 8049301:	7f 05                	jg     8049308 <read_six_numbers+0x4d>
 8049303:	e8 71 ff ff ff       	call   8049279 <explode_bomb>
 8049308:	c9                   	leave  
 8049309:	c3                   	ret    

0804930a <blank_line>:
 804930a:	55                   	push   ebp
 804930b:	89 e5                	mov    ebp,esp
 804930d:	56                   	push   esi
 804930e:	53                   	push   ebx
 804930f:	8b 75 08             	mov    esi,DWORD PTR [ebp+0x8]
 8049312:	eb 1b                	jmp    804932f <blank_line+0x25>
 8049314:	e8 83 f5 ff ff       	call   804889c <__ctype_b_loc@plt>
 8049319:	0f be db             	movsx  ebx,bl
 804931c:	8b 00                	mov    eax,DWORD PTR [eax]
 804931e:	f6 44 58 01 20       	test   BYTE PTR [eax+ebx*2+0x1],0x20
 8049323:	75 07                	jne    804932c <blank_line+0x22>
 8049325:	b8 00 00 00 00       	mov    eax,0x0
 804932a:	eb 0f                	jmp    804933b <blank_line+0x31>
 804932c:	83 c6 01             	add    esi,0x1
 804932f:	0f b6 1e             	movzx  ebx,BYTE PTR [esi]
 8049332:	84 db                	test   bl,bl
 8049334:	75 de                	jne    8049314 <blank_line+0xa>
 8049336:	b8 01 00 00 00       	mov    eax,0x1
 804933b:	5b                   	pop    ebx
 804933c:	5e                   	pop    esi
 804933d:	5d                   	pop    ebp
 804933e:	c3                   	ret    

0804933f <skip>:
 804933f:	55                   	push   ebp
 8049340:	89 e5                	mov    ebp,esp
 8049342:	53                   	push   ebx
 8049343:	83 ec 14             	sub    esp,0x14
 8049346:	a1 f0 b8 04 08       	mov    eax,ds:0x804b8f0
 804934b:	89 44 24 08          	mov    DWORD PTR [esp+0x8],eax
 804934f:	c7 44 24 04 50 00 00 	mov    DWORD PTR [esp+0x4],0x50
 8049356:	00 
 8049357:	a1 ec b8 04 08       	mov    eax,ds:0x804b8ec
 804935c:	8d 04 80             	lea    eax,[eax+eax*4]
 804935f:	c1 e0 04             	shl    eax,0x4
 8049362:	05 00 b9 04 08       	add    eax,0x804b900
 8049367:	89 04 24             	mov    DWORD PTR [esp],eax
 804936a:	e8 cd f4 ff ff       	call   804883c <fgets@plt>
 804936f:	89 c3                	mov    ebx,eax
 8049371:	85 c0                	test   eax,eax
 8049373:	74 0c                	je     8049381 <skip+0x42>
 8049375:	89 04 24             	mov    DWORD PTR [esp],eax
 8049378:	e8 8d ff ff ff       	call   804930a <blank_line>
 804937d:	85 c0                	test   eax,eax
 804937f:	75 c5                	jne    8049346 <skip+0x7>
 8049381:	89 d8                	mov    eax,ebx
 8049383:	83 c4 14             	add    esp,0x14
 8049386:	5b                   	pop    ebx
 8049387:	5d                   	pop    ebp
 8049388:	c3                   	ret    

08049389 <read_line>:
 8049389:	55                   	push   ebp
 804938a:	89 e5                	mov    ebp,esp
 804938c:	83 ec 28             	sub    esp,0x28
 804938f:	89 5d f4             	mov    DWORD PTR [ebp-0xc],ebx
 8049392:	89 75 f8             	mov    DWORD PTR [ebp-0x8],esi
 8049395:	89 7d fc             	mov    DWORD PTR [ebp-0x4],edi
 8049398:	e8 a2 ff ff ff       	call   804933f <skip>
 804939d:	85 c0                	test   eax,eax
 804939f:	75 6c                	jne    804940d <read_line+0x84>
 80493a1:	a1 f0 b8 04 08       	mov    eax,ds:0x804b8f0
 80493a6:	3b 05 c4 b8 04 08    	cmp    eax,DWORD PTR ds:0x804b8c4
 80493ac:	75 18                	jne    80493c6 <read_line+0x3d>
 80493ae:	c7 04 24 b0 a7 04 08 	mov    DWORD PTR [esp],0x804a7b0
 80493b5:	e8 a2 f5 ff ff       	call   804895c <puts@plt>
 80493ba:	c7 04 24 08 00 00 00 	mov    DWORD PTR [esp],0x8
 80493c1:	e8 b6 f5 ff ff       	call   804897c <exit@plt>
 80493c6:	c7 04 24 7b a4 04 08 	mov    DWORD PTR [esp],0x804a47b
 80493cd:	e8 4a f4 ff ff       	call   804881c <getenv@plt>
 80493d2:	85 c0                	test   eax,eax
 80493d4:	74 0c                	je     80493e2 <read_line+0x59>
 80493d6:	c7 04 24 00 00 00 00 	mov    DWORD PTR [esp],0x0
 80493dd:	e8 9a f5 ff ff       	call   804897c <exit@plt>
 80493e2:	a1 c4 b8 04 08       	mov    eax,ds:0x804b8c4
 80493e7:	a3 f0 b8 04 08       	mov    ds:0x804b8f0,eax
 80493ec:	e8 4e ff ff ff       	call   804933f <skip>
 80493f1:	85 c0                	test   eax,eax
 80493f3:	75 18                	jne    804940d <read_line+0x84>
 80493f5:	c7 04 24 b0 a7 04 08 	mov    DWORD PTR [esp],0x804a7b0
 80493fc:	e8 5b f5 ff ff       	call   804895c <puts@plt>
 8049401:	c7 04 24 00 00 00 00 	mov    DWORD PTR [esp],0x0
 8049408:	e8 6f f5 ff ff       	call   804897c <exit@plt>
 804940d:	be 00 b9 04 08       	mov    esi,0x804b900
 8049412:	a1 ec b8 04 08       	mov    eax,ds:0x804b8ec
 8049417:	8d 04 80             	lea    eax,[eax+eax*4]
 804941a:	c1 e0 04             	shl    eax,0x4
 804941d:	8d b8 00 b9 04 08    	lea    edi,[eax+0x804b900]
 8049423:	b8 00 00 00 00       	mov    eax,0x0
 8049428:	b9 ff ff ff ff       	mov    ecx,0xffffffff
 804942d:	f2 ae                	repnz scas al,BYTE PTR es:[edi]
 804942f:	f7 d1                	not    ecx
 8049431:	8d 59 ff             	lea    ebx,[ecx-0x1]
 8049434:	83 fb 4e             	cmp    ebx,0x4e
 8049437:	7e 54                	jle    804948d <read_line+0x104>
 8049439:	c7 04 24 08 a8 04 08 	mov    DWORD PTR [esp],0x804a808
 8049440:	e8 17 f5 ff ff       	call   804895c <puts@plt>
 8049445:	a1 ec b8 04 08       	mov    eax,ds:0x804b8ec
 804944a:	8d 50 01             	lea    edx,[eax+0x1]
 804944d:	89 15 ec b8 04 08    	mov    DWORD PTR ds:0x804b8ec,edx
 8049453:	8d 04 80             	lea    eax,[eax+eax*4]
 8049456:	c1 e0 04             	shl    eax,0x4
 8049459:	8d 04 06             	lea    eax,[esi+eax*1]
 804945c:	c7 00 2a 2a 2a d0    	mov    DWORD PTR [eax],0xd02a2a2a
 8049462:	c7 40 04 be d0 b1 d1 	mov    DWORD PTR [eax+0x4],0xd1b1d0be
 8049469:	c7 40 08 80 d0 b5 d0 	mov    DWORD PTR [eax+0x8],0xd0b5d080
 8049470:	c7 40 0c b7 d0 b0 d0 	mov    DWORD PTR [eax+0xc],0xd0b0d0b7
 8049477:	c7 40 10 bd d0 be 2a 	mov    DWORD PTR [eax+0x10],0x2abed0bd
 804947e:	66 c7 40 14 2a 2a    	mov    WORD PTR [eax+0x14],0x2a2a
 8049484:	c6 40 16 00          	mov    BYTE PTR [eax+0x16],0x0
 8049488:	e8 ec fd ff ff       	call   8049279 <explode_bomb>
 804948d:	a1 ec b8 04 08       	mov    eax,ds:0x804b8ec
 8049492:	8d 14 85 00 00 00 00 	lea    edx,[eax*4+0x0]
 8049499:	8d 0c 02             	lea    ecx,[edx+eax*1]
 804949c:	c1 e1 04             	shl    ecx,0x4
 804949f:	c6 84 0b ff b8 04 08 	mov    BYTE PTR [ebx+ecx*1+0x804b8ff],0x0
 80494a6:	00 
 80494a7:	8d 48 01             	lea    ecx,[eax+0x1]
 80494aa:	89 0d ec b8 04 08    	mov    DWORD PTR ds:0x804b8ec,ecx
 80494b0:	8d 04 02             	lea    eax,[edx+eax*1]
 80494b3:	c1 e0 04             	shl    eax,0x4
 80494b6:	8d 04 06             	lea    eax,[esi+eax*1]
 80494b9:	8b 5d f4             	mov    ebx,DWORD PTR [ebp-0xc]
 80494bc:	8b 75 f8             	mov    esi,DWORD PTR [ebp-0x8]
 80494bf:	8b 7d fc             	mov    edi,DWORD PTR [ebp-0x4]
 80494c2:	89 ec                	mov    esp,ebp
 80494c4:	5d                   	pop    ebp
 80494c5:	c3                   	ret    

080494c6 <initialize_bomb>:
 80494c6:	55                   	push   ebp
 80494c7:	89 e5                	mov    ebp,esp
 80494c9:	57                   	push   edi
 80494ca:	56                   	push   esi
 80494cb:	53                   	push   ebx
 80494cc:	81 ec 5c 20 00 00    	sub    esp,0x205c
 80494d2:	c7 44 24 04 a0 95 04 	mov    DWORD PTR [esp+0x4],0x80495a0
 80494d9:	08 
 80494da:	c7 04 24 02 00 00 00 	mov    DWORD PTR [esp],0x2
 80494e1:	e8 06 f3 ff ff       	call   80487ec <signal@plt>
 80494e6:	c7 44 24 04 40 00 00 	mov    DWORD PTR [esp+0x4],0x40
 80494ed:	00 
 80494ee:	8d 45 a8             	lea    eax,[ebp-0x58]
 80494f1:	89 04 24             	mov    DWORD PTR [esp],eax
 80494f4:	e8 43 f4 ff ff       	call   804893c <gethostname@plt>
 80494f9:	85 c0                	test   eax,eax
 80494fb:	75 18                	jne    8049515 <initialize_bomb+0x4f>
 80494fd:	a1 c0 b6 04 08       	mov    eax,ds:0x804b6c0
 8049502:	bb 00 00 00 00       	mov    ebx,0x0
 8049507:	8d 75 a8             	lea    esi,[ebp-0x58]
 804950a:	bf c0 b6 04 08       	mov    edi,0x804b6c0
 804950f:	85 c0                	test   eax,eax
 8049511:	75 1a                	jne    804952d <initialize_bomb+0x67>
 8049513:	eb 68                	jmp    804957d <initialize_bomb+0xb7>
 8049515:	c7 04 24 50 a8 04 08 	mov    DWORD PTR [esp],0x804a850
 804951c:	e8 3b f4 ff ff       	call   804895c <puts@plt>
 8049521:	c7 04 24 08 00 00 00 	mov    DWORD PTR [esp],0x8
 8049528:	e8 4f f4 ff ff       	call   804897c <exit@plt>
 804952d:	89 74 24 04          	mov    DWORD PTR [esp+0x4],esi
 8049531:	89 04 24             	mov    DWORD PTR [esp],eax
 8049534:	e8 d3 f3 ff ff       	call   804890c <strcasecmp@plt>
 8049539:	85 c0                	test   eax,eax
 804953b:	74 0c                	je     8049549 <initialize_bomb+0x83>
 804953d:	83 c3 01             	add    ebx,0x1
 8049540:	8b 04 9f             	mov    eax,DWORD PTR [edi+ebx*4]
 8049543:	85 c0                	test   eax,eax
 8049545:	75 e6                	jne    804952d <initialize_bomb+0x67>
 8049547:	eb 34                	jmp    804957d <initialize_bomb+0xb7>
 8049549:	8d 85 a8 df ff ff    	lea    eax,[ebp-0x2058]
 804954f:	89 04 24             	mov    DWORD PTR [esp],eax
 8049552:	e8 a9 00 00 00       	call   8049600 <init_driver>
 8049557:	85 c0                	test   eax,eax
 8049559:	79 3a                	jns    8049595 <initialize_bomb+0xcf>
 804955b:	8d 85 a8 df ff ff    	lea    eax,[ebp-0x2058]
 8049561:	89 44 24 04          	mov    DWORD PTR [esp+0x4],eax
 8049565:	c7 04 24 c4 a8 04 08 	mov    DWORD PTR [esp],0x804a8c4
 804956c:	e8 8b f3 ff ff       	call   80488fc <printf@plt>
 8049571:	c7 04 24 08 00 00 00 	mov    DWORD PTR [esp],0x8
 8049578:	e8 ff f3 ff ff       	call   804897c <exit@plt>
 804957d:	c7 04 24 f4 a8 04 08 	mov    DWORD PTR [esp],0x804a8f4
 8049584:	e8 d3 f3 ff ff       	call   804895c <puts@plt>
 8049589:	c7 04 24 08 00 00 00 	mov    DWORD PTR [esp],0x8
 8049590:	e8 e7 f3 ff ff       	call   804897c <exit@plt>
 8049595:	81 c4 5c 20 00 00    	add    esp,0x205c
 804959b:	5b                   	pop    ebx
 804959c:	5e                   	pop    esi
 804959d:	5f                   	pop    edi
 804959e:	5d                   	pop    ebp
 804959f:	c3                   	ret    

080495a0 <sig_handler>:
 80495a0:	55                   	push   ebp
 80495a1:	89 e5                	mov    ebp,esp
 80495a3:	83 ec 18             	sub    esp,0x18
 80495a6:	c7 04 24 68 a9 04 08 	mov    DWORD PTR [esp],0x804a968
 80495ad:	e8 aa f3 ff ff       	call   804895c <puts@plt>
 80495b2:	c7 04 24 03 00 00 00 	mov    DWORD PTR [esp],0x3
 80495b9:	e8 8e f3 ff ff       	call   804894c <sleep@plt>
 80495be:	c7 04 24 86 a4 04 08 	mov    DWORD PTR [esp],0x804a486
 80495c5:	e8 32 f3 ff ff       	call   80488fc <printf@plt>
 80495ca:	a1 e0 b8 04 08       	mov    eax,ds:0x804b8e0
 80495cf:	89 04 24             	mov    DWORD PTR [esp],eax
 80495d2:	e8 a5 f2 ff ff       	call   804887c <fflush@plt>
 80495d7:	c7 04 24 01 00 00 00 	mov    DWORD PTR [esp],0x1
 80495de:	e8 69 f3 ff ff       	call   804894c <sleep@plt>
 80495e3:	c7 04 24 8e a4 04 08 	mov    DWORD PTR [esp],0x804a48e
 80495ea:	e8 6d f3 ff ff       	call   804895c <puts@plt>
 80495ef:	c7 04 24 10 00 00 00 	mov    DWORD PTR [esp],0x10
 80495f6:	e8 81 f3 ff ff       	call   804897c <exit@plt>
 80495fb:	90                   	nop
 80495fc:	90                   	nop
 80495fd:	90                   	nop
 80495fe:	90                   	nop
 80495ff:	90                   	nop

08049600 <init_driver>:
 8049600:	55                   	push   ebp
 8049601:	89 e5                	mov    ebp,esp
 8049603:	57                   	push   edi
 8049604:	56                   	push   esi
 8049605:	53                   	push   ebx
 8049606:	83 ec 2c             	sub    esp,0x2c
 8049609:	8b 7d 08             	mov    edi,DWORD PTR [ebp+0x8]
 804960c:	c7 44 24 04 01 00 00 	mov    DWORD PTR [esp+0x4],0x1
 8049613:	00 
 8049614:	c7 04 24 0d 00 00 00 	mov    DWORD PTR [esp],0xd
 804961b:	e8 cc f1 ff ff       	call   80487ec <signal@plt>
 8049620:	c7 44 24 04 01 00 00 	mov    DWORD PTR [esp+0x4],0x1
 8049627:	00 
 8049628:	c7 04 24 1d 00 00 00 	mov    DWORD PTR [esp],0x1d
 804962f:	e8 b8 f1 ff ff       	call   80487ec <signal@plt>
 8049634:	c7 44 24 04 01 00 00 	mov    DWORD PTR [esp+0x4],0x1
 804963b:	00 
 804963c:	c7 04 24 1d 00 00 00 	mov    DWORD PTR [esp],0x1d
 8049643:	e8 a4 f1 ff ff       	call   80487ec <signal@plt>
 8049648:	c7 44 24 08 00 00 00 	mov    DWORD PTR [esp+0x8],0x0
 804964f:	00 
 8049650:	c7 44 24 04 01 00 00 	mov    DWORD PTR [esp+0x4],0x1
 8049657:	00 
 8049658:	c7 04 24 02 00 00 00 	mov    DWORD PTR [esp],0x2
 804965f:	e8 28 f2 ff ff       	call   804888c <socket@plt>
 8049664:	89 c6                	mov    esi,eax
 8049666:	85 c0                	test   eax,eax
 8049668:	79 4e                	jns    80496b8 <init_driver+0xb8>
 804966a:	c7 07 45 72 72 6f    	mov    DWORD PTR [edi],0x6f727245
 8049670:	c7 47 04 72 3a 20 43 	mov    DWORD PTR [edi+0x4],0x43203a72
 8049677:	c7 47 08 6c 69 65 6e 	mov    DWORD PTR [edi+0x8],0x6e65696c
 804967e:	c7 47 0c 74 20 75 6e 	mov    DWORD PTR [edi+0xc],0x6e752074
 8049685:	c7 47 10 61 62 6c 65 	mov    DWORD PTR [edi+0x10],0x656c6261
 804968c:	c7 47 14 20 74 6f 20 	mov    DWORD PTR [edi+0x14],0x206f7420
 8049693:	c7 47 18 63 72 65 61 	mov    DWORD PTR [edi+0x18],0x61657263
 804969a:	c7 47 1c 74 65 20 73 	mov    DWORD PTR [edi+0x1c],0x73206574
 80496a1:	c7 47 20 6f 63 6b 65 	mov    DWORD PTR [edi+0x20],0x656b636f
 80496a8:	66 c7 47 24 74 00    	mov    WORD PTR [edi+0x24],0x74
 80496ae:	b8 ff ff ff ff       	mov    eax,0xffffffff
 80496b3:	e9 12 01 00 00       	jmp    80497ca <init_driver+0x1ca>
 80496b8:	c7 04 24 c6 a5 04 08 	mov    DWORD PTR [esp],0x804a5c6
 80496bf:	e8 a8 f2 ff ff       	call   804896c <gethostbyname@plt>
 80496c4:	85 c0                	test   eax,eax
 80496c6:	75 68                	jne    8049730 <init_driver+0x130>
 80496c8:	c7 07 45 72 72 6f    	mov    DWORD PTR [edi],0x6f727245
 80496ce:	c7 47 04 72 3a 20 44 	mov    DWORD PTR [edi+0x4],0x44203a72
 80496d5:	c7 47 08 4e 53 20 69 	mov    DWORD PTR [edi+0x8],0x6920534e
 80496dc:	c7 47 0c 73 20 75 6e 	mov    DWORD PTR [edi+0xc],0x6e752073
 80496e3:	c7 47 10 61 62 6c 65 	mov    DWORD PTR [edi+0x10],0x656c6261
 80496ea:	c7 47 14 20 74 6f 20 	mov    DWORD PTR [edi+0x14],0x206f7420
 80496f1:	c7 47 18 72 65 73 6f 	mov    DWORD PTR [edi+0x18],0x6f736572
 80496f8:	c7 47 1c 6c 76 65 20 	mov    DWORD PTR [edi+0x1c],0x2065766c
 80496ff:	c7 47 20 73 65 72 76 	mov    DWORD PTR [edi+0x20],0x76726573
 8049706:	c7 47 24 65 72 20 61 	mov    DWORD PTR [edi+0x24],0x61207265
 804970d:	c7 47 28 64 64 72 65 	mov    DWORD PTR [edi+0x28],0x65726464
 8049714:	66 c7 47 2c 73 73    	mov    WORD PTR [edi+0x2c],0x7373
 804971a:	c6 47 2e 00          	mov    BYTE PTR [edi+0x2e],0x0
 804971e:	89 34 24             	mov    DWORD PTR [esp],esi
 8049721:	e8 f6 f1 ff ff       	call   804891c <close@plt>
 8049726:	b8 ff ff ff ff       	mov    eax,0xffffffff
 804972b:	e9 9a 00 00 00       	jmp    80497ca <init_driver+0x1ca>
 8049730:	8d 5d d8             	lea    ebx,[ebp-0x28]
 8049733:	c7 03 00 00 00 00    	mov    DWORD PTR [ebx],0x0
 8049739:	c7 43 04 00 00 00 00 	mov    DWORD PTR [ebx+0x4],0x0
 8049740:	c7 43 08 00 00 00 00 	mov    DWORD PTR [ebx+0x8],0x0
 8049747:	c7 43 0c 00 00 00 00 	mov    DWORD PTR [ebx+0xc],0x0
 804974e:	66 c7 45 d8 02 00    	mov    WORD PTR [ebp-0x28],0x2
 8049754:	8b 50 0c             	mov    edx,DWORD PTR [eax+0xc]
 8049757:	89 54 24 08          	mov    DWORD PTR [esp+0x8],edx
 804975b:	8d 55 dc             	lea    edx,[ebp-0x24]
 804975e:	89 54 24 04          	mov    DWORD PTR [esp+0x4],edx
 8049762:	8b 40 10             	mov    eax,DWORD PTR [eax+0x10]
 8049765:	8b 00                	mov    eax,DWORD PTR [eax]
 8049767:	89 04 24             	mov    DWORD PTR [esp],eax
 804976a:	e8 3d f1 ff ff       	call   80488ac <bcopy@plt>
 804976f:	66 c7 45 da 3b 6e    	mov    WORD PTR [ebp-0x26],0x6e3b
 8049775:	c7 44 24 08 10 00 00 	mov    DWORD PTR [esp+0x8],0x10
 804977c:	00 
 804977d:	89 5c 24 04          	mov    DWORD PTR [esp+0x4],ebx
 8049781:	89 34 24             	mov    DWORD PTR [esp],esi
 8049784:	e8 53 f0 ff ff       	call   80487dc <connect@plt>
 8049789:	85 c0                	test   eax,eax
 804978b:	79 27                	jns    80497b4 <init_driver+0x1b4>
 804978d:	c7 44 24 08 c6 a5 04 	mov    DWORD PTR [esp+0x8],0x804a5c6
 8049794:	08 
 8049795:	c7 44 24 04 10 aa 04 	mov    DWORD PTR [esp+0x4],0x804aa10
 804979c:	08 
 804979d:	89 3c 24             	mov    DWORD PTR [esp],edi
 80497a0:	e8 27 f0 ff ff       	call   80487cc <sprintf@plt>
 80497a5:	89 34 24             	mov    DWORD PTR [esp],esi
 80497a8:	e8 6f f1 ff ff       	call   804891c <close@plt>
 80497ad:	b8 ff ff ff ff       	mov    eax,0xffffffff
 80497b2:	eb 16                	jmp    80497ca <init_driver+0x1ca>
 80497b4:	89 34 24             	mov    DWORD PTR [esp],esi
 80497b7:	e8 60 f1 ff ff       	call   804891c <close@plt>
 80497bc:	66 c7 07 4f 4b       	mov    WORD PTR [edi],0x4b4f
 80497c1:	c6 47 02 00          	mov    BYTE PTR [edi+0x2],0x0
 80497c5:	b8 00 00 00 00       	mov    eax,0x0
 80497ca:	83 c4 2c             	add    esp,0x2c
 80497cd:	5b                   	pop    ebx
 80497ce:	5e                   	pop    esi
 80497cf:	5f                   	pop    edi
 80497d0:	5d                   	pop    ebp
 80497d1:	c3                   	ret    

080497d2 <init_timeout>:
 80497d2:	55                   	push   ebp
 80497d3:	89 e5                	mov    ebp,esp
 80497d5:	53                   	push   ebx
 80497d6:	83 ec 14             	sub    esp,0x14
 80497d9:	8b 5d 08             	mov    ebx,DWORD PTR [ebp+0x8]
 80497dc:	85 db                	test   ebx,ebx
 80497de:	74 25                	je     8049805 <init_timeout+0x33>
 80497e0:	c7 44 24 04 ea 9f 04 	mov    DWORD PTR [esp+0x4],0x8049fea
 80497e7:	08 
 80497e8:	c7 04 24 0e 00 00 00 	mov    DWORD PTR [esp],0xe
 80497ef:	e8 f8 ef ff ff       	call   80487ec <signal@plt>
 80497f4:	89 d8                	mov    eax,ebx
 80497f6:	c1 f8 1f             	sar    eax,0x1f
 80497f9:	f7 d0                	not    eax
 80497fb:	21 c3                	and    ebx,eax
 80497fd:	89 1c 24             	mov    DWORD PTR [esp],ebx
 8049800:	e8 d7 f0 ff ff       	call   80488dc <alarm@plt>
 8049805:	83 c4 14             	add    esp,0x14
 8049808:	5b                   	pop    ebx
 8049809:	5d                   	pop    ebp
 804980a:	c3                   	ret    

0804980b <rio_readlineb>:
 804980b:	55                   	push   ebp
 804980c:	89 e5                	mov    ebp,esp
 804980e:	57                   	push   edi
 804980f:	56                   	push   esi
 8049810:	53                   	push   ebx
 8049811:	83 ec 3c             	sub    esp,0x3c
 8049814:	89 c3                	mov    ebx,eax
 8049816:	89 4d c8             	mov    DWORD PTR [ebp-0x38],ecx
 8049819:	89 55 d0             	mov    DWORD PTR [ebp-0x30],edx
 804981c:	83 f9 01             	cmp    ecx,0x1
 804981f:	0f 86 be 00 00 00    	jbe    80498e3 <rio_readlineb+0xd8>
 8049825:	8d 78 0c             	lea    edi,[eax+0xc]
 8049828:	89 7d d4             	mov    DWORD PTR [ebp-0x2c],edi
 804982b:	c7 45 cc 01 00 00 00 	mov    DWORD PTR [ebp-0x34],0x1
 8049832:	eb 3c                	jmp    8049870 <rio_readlineb+0x65>
 8049834:	c7 44 24 08 00 20 00 	mov    DWORD PTR [esp+0x8],0x2000
 804983b:	00 
 804983c:	89 7c 24 04          	mov    DWORD PTR [esp+0x4],edi
 8049840:	8b 03                	mov    eax,DWORD PTR [ebx]
 8049842:	89 04 24             	mov    DWORD PTR [esp],eax
 8049845:	e8 12 f0 ff ff       	call   804885c <read@plt>
 804984a:	89 43 04             	mov    DWORD PTR [ebx+0x4],eax
 804984d:	85 c0                	test   eax,eax
 804984f:	79 11                	jns    8049862 <rio_readlineb+0x57>
 8049851:	e8 66 ef ff ff       	call   80487bc <__errno_location@plt>
 8049856:	83 38 04             	cmp    DWORD PTR [eax],0x4
 8049859:	74 15                	je     8049870 <rio_readlineb+0x65>
 804985b:	be ff ff ff ff       	mov    esi,0xffffffff
 8049860:	eb 55                	jmp    80498b7 <rio_readlineb+0xac>
 8049862:	85 c0                	test   eax,eax
 8049864:	0f 84 91 00 00 00    	je     80498fb <rio_readlineb+0xf0>
 804986a:	8b 45 d4             	mov    eax,DWORD PTR [ebp-0x2c]
 804986d:	89 43 08             	mov    DWORD PTR [ebx+0x8],eax
 8049870:	8b 73 04             	mov    esi,DWORD PTR [ebx+0x4]
 8049873:	85 f6                	test   esi,esi
 8049875:	7e bd                	jle    8049834 <rio_readlineb+0x29>
 8049877:	85 f6                	test   esi,esi
 8049879:	0f 85 83 00 00 00    	jne    8049902 <rio_readlineb+0xf7>
 804987f:	8b 43 08             	mov    eax,DWORD PTR [ebx+0x8]
 8049882:	89 74 24 08          	mov    DWORD PTR [esp+0x8],esi
 8049886:	89 44 24 04          	mov    DWORD PTR [esp+0x4],eax
 804988a:	8d 55 e7             	lea    edx,[ebp-0x19]
 804988d:	89 14 24             	mov    DWORD PTR [esp],edx
 8049890:	e8 27 f0 ff ff       	call   80488bc <memcpy@plt>
 8049895:	01 73 08             	add    DWORD PTR [ebx+0x8],esi
 8049898:	29 73 04             	sub    DWORD PTR [ebx+0x4],esi
 804989b:	83 fe 01             	cmp    esi,0x1
 804989e:	75 17                	jne    80498b7 <rio_readlineb+0xac>
 80498a0:	0f b6 45 e7          	movzx  eax,BYTE PTR [ebp-0x19]
 80498a4:	8b 55 d0             	mov    edx,DWORD PTR [ebp-0x30]
 80498a7:	88 02                	mov    BYTE PTR [edx],al
 80498a9:	83 c2 01             	add    edx,0x1
 80498ac:	89 55 d0             	mov    DWORD PTR [ebp-0x30],edx
 80498af:	80 7d e7 0a          	cmp    BYTE PTR [ebp-0x19],0xa
 80498b3:	75 20                	jne    80498d5 <rio_readlineb+0xca>
 80498b5:	eb 33                	jmp    80498ea <rio_readlineb+0xdf>
 80498b7:	8b 45 cc             	mov    eax,DWORD PTR [ebp-0x34]
 80498ba:	85 f6                	test   esi,esi
 80498bc:	74 09                	je     80498c7 <rio_readlineb+0xbc>
 80498be:	c7 45 cc ff ff ff ff 	mov    DWORD PTR [ebp-0x34],0xffffffff
 80498c5:	eb 29                	jmp    80498f0 <rio_readlineb+0xe5>
 80498c7:	83 f8 01             	cmp    eax,0x1
 80498ca:	75 1e                	jne    80498ea <rio_readlineb+0xdf>
 80498cc:	c7 45 cc 00 00 00 00 	mov    DWORD PTR [ebp-0x34],0x0
 80498d3:	eb 1b                	jmp    80498f0 <rio_readlineb+0xe5>
 80498d5:	83 45 cc 01          	add    DWORD PTR [ebp-0x34],0x1
 80498d9:	8b 45 cc             	mov    eax,DWORD PTR [ebp-0x34]
 80498dc:	39 45 c8             	cmp    DWORD PTR [ebp-0x38],eax
 80498df:	77 8f                	ja     8049870 <rio_readlineb+0x65>
 80498e1:	eb 07                	jmp    80498ea <rio_readlineb+0xdf>
 80498e3:	c7 45 cc 01 00 00 00 	mov    DWORD PTR [ebp-0x34],0x1
 80498ea:	8b 55 d0             	mov    edx,DWORD PTR [ebp-0x30]
 80498ed:	c6 02 00             	mov    BYTE PTR [edx],0x0
 80498f0:	8b 45 cc             	mov    eax,DWORD PTR [ebp-0x34]
 80498f3:	83 c4 3c             	add    esp,0x3c
 80498f6:	5b                   	pop    ebx
 80498f7:	5e                   	pop    esi
 80498f8:	5f                   	pop    edi
 80498f9:	5d                   	pop    ebp
 80498fa:	c3                   	ret    
 80498fb:	be 00 00 00 00       	mov    esi,0x0
 8049900:	eb b5                	jmp    80498b7 <rio_readlineb+0xac>
 8049902:	8b 43 08             	mov    eax,DWORD PTR [ebx+0x8]
 8049905:	0f b6 00             	movzx  eax,BYTE PTR [eax]
 8049908:	88 45 e7             	mov    BYTE PTR [ebp-0x19],al
 804990b:	83 43 08 01          	add    DWORD PTR [ebx+0x8],0x1
 804990f:	83 6b 04 01          	sub    DWORD PTR [ebx+0x4],0x1
 8049913:	eb 8b                	jmp    80498a0 <rio_readlineb+0x95>

08049915 <submitr>:
 8049915:	55                   	push   ebp
 8049916:	89 e5                	mov    ebp,esp
 8049918:	57                   	push   edi
 8049919:	56                   	push   esi
 804991a:	53                   	push   ebx
 804991b:	81 ec 6c a0 00 00    	sub    esp,0xa06c
 8049921:	c7 85 c8 7f ff ff 00 	mov    DWORD PTR [ebp-0x8038],0x0
 8049928:	00 00 00 
 804992b:	c7 44 24 08 00 00 00 	mov    DWORD PTR [esp+0x8],0x0
 8049932:	00 
 8049933:	c7 44 24 04 01 00 00 	mov    DWORD PTR [esp+0x4],0x1
 804993a:	00 
 804993b:	c7 04 24 02 00 00 00 	mov    DWORD PTR [esp],0x2
 8049942:	e8 45 ef ff ff       	call   804888c <socket@plt>
 8049947:	89 85 b0 5f ff ff    	mov    DWORD PTR [ebp-0xa050],eax
 804994d:	85 c0                	test   eax,eax
 804994f:	79 1b                	jns    804996c <submitr+0x57>
 8049951:	b8 38 aa 04 08       	mov    eax,0x804aa38
 8049956:	b9 26 00 00 00       	mov    ecx,0x26
 804995b:	8b 7d 20             	mov    edi,DWORD PTR [ebp+0x20]
 804995e:	89 c6                	mov    esi,eax
 8049960:	f3 a4                	rep movs BYTE PTR es:[edi],BYTE PTR ds:[esi]
 8049962:	b8 ff ff ff ff       	mov    eax,0xffffffff
 8049967:	e9 87 05 00 00       	jmp    8049ef3 <submitr+0x5de>
 804996c:	8b 45 08             	mov    eax,DWORD PTR [ebp+0x8]
 804996f:	89 04 24             	mov    DWORD PTR [esp],eax
 8049972:	e8 f5 ef ff ff       	call   804896c <gethostbyname@plt>
 8049977:	85 c0                	test   eax,eax
 8049979:	75 29                	jne    80499a4 <submitr+0x8f>
 804997b:	b8 60 aa 04 08       	mov    eax,0x804aa60
 8049980:	b9 2f 00 00 00       	mov    ecx,0x2f
 8049985:	8b 7d 20             	mov    edi,DWORD PTR [ebp+0x20]
 8049988:	89 c6                	mov    esi,eax
 804998a:	f3 a4                	rep movs BYTE PTR es:[edi],BYTE PTR ds:[esi]
 804998c:	8b 85 b0 5f ff ff    	mov    eax,DWORD PTR [ebp-0xa050]
 8049992:	89 04 24             	mov    DWORD PTR [esp],eax
 8049995:	e8 82 ef ff ff       	call   804891c <close@plt>
 804999a:	b8 ff ff ff ff       	mov    eax,0xffffffff
 804999f:	e9 4f 05 00 00       	jmp    8049ef3 <submitr+0x5de>
 80499a4:	8d 5d d8             	lea    ebx,[ebp-0x28]
 80499a7:	c7 03 00 00 00 00    	mov    DWORD PTR [ebx],0x0
 80499ad:	c7 43 04 00 00 00 00 	mov    DWORD PTR [ebx+0x4],0x0
 80499b4:	c7 43 08 00 00 00 00 	mov    DWORD PTR [ebx+0x8],0x0
 80499bb:	c7 43 0c 00 00 00 00 	mov    DWORD PTR [ebx+0xc],0x0
 80499c2:	66 c7 45 d8 02 00    	mov    WORD PTR [ebp-0x28],0x2
 80499c8:	8b 50 0c             	mov    edx,DWORD PTR [eax+0xc]
 80499cb:	89 54 24 08          	mov    DWORD PTR [esp+0x8],edx
 80499cf:	8d 55 dc             	lea    edx,[ebp-0x24]
 80499d2:	89 54 24 04          	mov    DWORD PTR [esp+0x4],edx
 80499d6:	8b 40 10             	mov    eax,DWORD PTR [eax+0x10]
 80499d9:	8b 00                	mov    eax,DWORD PTR [eax]
 80499db:	89 04 24             	mov    DWORD PTR [esp],eax
 80499de:	e8 c9 ee ff ff       	call   80488ac <bcopy@plt>
 80499e3:	0f b7 45 0c          	movzx  eax,WORD PTR [ebp+0xc]
 80499e7:	66 c1 c8 08          	ror    ax,0x8
 80499eb:	66 89 45 da          	mov    WORD PTR [ebp-0x26],ax
 80499ef:	c7 44 24 08 10 00 00 	mov    DWORD PTR [esp+0x8],0x10
 80499f6:	00 
 80499f7:	89 5c 24 04          	mov    DWORD PTR [esp+0x4],ebx
 80499fb:	8b 8d b0 5f ff ff    	mov    ecx,DWORD PTR [ebp-0xa050]
 8049a01:	89 0c 24             	mov    DWORD PTR [esp],ecx
 8049a04:	e8 d3 ed ff ff       	call   80487dc <connect@plt>
 8049a09:	85 c0                	test   eax,eax
 8049a0b:	79 29                	jns    8049a36 <submitr+0x121>
 8049a0d:	b8 90 aa 04 08       	mov    eax,0x804aa90
 8049a12:	b9 27 00 00 00       	mov    ecx,0x27
 8049a17:	8b 7d 20             	mov    edi,DWORD PTR [ebp+0x20]
 8049a1a:	89 c6                	mov    esi,eax
 8049a1c:	f3 a4                	rep movs BYTE PTR es:[edi],BYTE PTR ds:[esi]
 8049a1e:	8b 85 b0 5f ff ff    	mov    eax,DWORD PTR [ebp-0xa050]
 8049a24:	89 04 24             	mov    DWORD PTR [esp],eax
 8049a27:	e8 f0 ee ff ff       	call   804891c <close@plt>
 8049a2c:	b8 ff ff ff ff       	mov    eax,0xffffffff
 8049a31:	e9 bd 04 00 00       	jmp    8049ef3 <submitr+0x5de>
 8049a36:	ba ff ff ff ff       	mov    edx,0xffffffff
 8049a3b:	8b 7d 1c             	mov    edi,DWORD PTR [ebp+0x1c]
 8049a3e:	b8 00 00 00 00       	mov    eax,0x0
 8049a43:	89 d1                	mov    ecx,edx
 8049a45:	f2 ae                	repnz scas al,BYTE PTR es:[edi]
 8049a47:	89 cb                	mov    ebx,ecx
 8049a49:	f7 d3                	not    ebx
 8049a4b:	8b 7d 10             	mov    edi,DWORD PTR [ebp+0x10]
 8049a4e:	89 d1                	mov    ecx,edx
 8049a50:	f2 ae                	repnz scas al,BYTE PTR es:[edi]
 8049a52:	89 8d b4 5f ff ff    	mov    DWORD PTR [ebp-0xa04c],ecx
 8049a58:	8b 7d 14             	mov    edi,DWORD PTR [ebp+0x14]
 8049a5b:	89 d1                	mov    ecx,edx
 8049a5d:	f2 ae                	repnz scas al,BYTE PTR es:[edi]
 8049a5f:	89 ce                	mov    esi,ecx
 8049a61:	f7 d6                	not    esi
 8049a63:	8b 7d 18             	mov    edi,DWORD PTR [ebp+0x18]
 8049a66:	89 d1                	mov    ecx,edx
 8049a68:	f2 ae                	repnz scas al,BYTE PTR es:[edi]
 8049a6a:	2b b5 b4 5f ff ff    	sub    esi,DWORD PTR [ebp-0xa04c]
 8049a70:	29 ce                	sub    esi,ecx
 8049a72:	8d 44 5b fd          	lea    eax,[ebx+ebx*2-0x3]
 8049a76:	8d 44 06 7b          	lea    eax,[esi+eax*1+0x7b]
 8049a7a:	3d 00 20 00 00       	cmp    eax,0x2000
 8049a7f:	76 7c                	jbe    8049afd <submitr+0x1e8>
 8049a81:	8b 75 20             	mov    esi,DWORD PTR [ebp+0x20]
 8049a84:	c7 06 45 72 72 6f    	mov    DWORD PTR [esi],0x6f727245
 8049a8a:	c7 46 04 72 3a 20 52 	mov    DWORD PTR [esi+0x4],0x52203a72
 8049a91:	c7 46 08 65 73 75 6c 	mov    DWORD PTR [esi+0x8],0x6c757365
 8049a98:	c7 46 0c 74 20 73 74 	mov    DWORD PTR [esi+0xc],0x74732074
 8049a9f:	c7 46 10 72 69 6e 67 	mov    DWORD PTR [esi+0x10],0x676e6972
 8049aa6:	c7 46 14 20 74 6f 6f 	mov    DWORD PTR [esi+0x14],0x6f6f7420
 8049aad:	c7 46 18 20 6c 61 72 	mov    DWORD PTR [esi+0x18],0x72616c20
 8049ab4:	c7 46 1c 67 65 2e 20 	mov    DWORD PTR [esi+0x1c],0x202e6567
 8049abb:	c7 46 20 49 6e 63 72 	mov    DWORD PTR [esi+0x20],0x72636e49
 8049ac2:	c7 46 24 65 61 73 65 	mov    DWORD PTR [esi+0x24],0x65736165
 8049ac9:	c7 46 28 20 53 55 42 	mov    DWORD PTR [esi+0x28],0x42555320
 8049ad0:	c7 46 2c 4d 49 54 52 	mov    DWORD PTR [esi+0x2c],0x5254494d
 8049ad7:	c7 46 30 5f 4d 41 58 	mov    DWORD PTR [esi+0x30],0x58414d5f
 8049ade:	c7 46 34 42 55 46 00 	mov    DWORD PTR [esi+0x34],0x465542
 8049ae5:	8b bd b0 5f ff ff    	mov    edi,DWORD PTR [ebp-0xa050]
 8049aeb:	89 3c 24             	mov    DWORD PTR [esp],edi
 8049aee:	e8 29 ee ff ff       	call   804891c <close@plt>
 8049af3:	b8 ff ff ff ff       	mov    eax,0xffffffff
 8049af8:	e9 f6 03 00 00       	jmp    8049ef3 <submitr+0x5de>
 8049afd:	8d 95 cc 9f ff ff    	lea    edx,[ebp-0x6034]
 8049b03:	b9 00 08 00 00       	mov    ecx,0x800
 8049b08:	b8 00 00 00 00       	mov    eax,0x0
 8049b0d:	89 d7                	mov    edi,edx
 8049b0f:	f3 ab                	rep stos DWORD PTR es:[edi],eax
 8049b11:	8b 7d 1c             	mov    edi,DWORD PTR [ebp+0x1c]
 8049b14:	b9 ff ff ff ff       	mov    ecx,0xffffffff
 8049b19:	f2 ae                	repnz scas al,BYTE PTR es:[edi]
 8049b1b:	f7 d1                	not    ecx
 8049b1d:	89 cf                	mov    edi,ecx
 8049b1f:	83 ef 01             	sub    edi,0x1
 8049b22:	0f 84 d6 03 00 00    	je     8049efe <submitr+0x5e9>
 8049b28:	89 d6                	mov    esi,edx
 8049b2a:	bb 00 00 00 00       	mov    ebx,0x0
 8049b2f:	89 bd b4 5f ff ff    	mov    DWORD PTR [ebp-0xa04c],edi
 8049b35:	8b 7d 1c             	mov    edi,DWORD PTR [ebp+0x1c]
 8049b38:	0f b6 04 1f          	movzx  eax,BYTE PTR [edi+ebx*1]
 8049b3c:	3c 2a                	cmp    al,0x2a
 8049b3e:	74 24                	je     8049b64 <submitr+0x24f>
 8049b40:	3c 2d                	cmp    al,0x2d
 8049b42:	74 20                	je     8049b64 <submitr+0x24f>
 8049b44:	3c 2e                	cmp    al,0x2e
 8049b46:	74 1c                	je     8049b64 <submitr+0x24f>
 8049b48:	3c 5f                	cmp    al,0x5f
 8049b4a:	74 18                	je     8049b64 <submitr+0x24f>
 8049b4c:	8d 50 d0             	lea    edx,[eax-0x30]
 8049b4f:	80 fa 09             	cmp    dl,0x9
 8049b52:	76 10                	jbe    8049b64 <submitr+0x24f>
 8049b54:	8d 50 bf             	lea    edx,[eax-0x41]
 8049b57:	80 fa 19             	cmp    dl,0x19
 8049b5a:	76 08                	jbe    8049b64 <submitr+0x24f>
 8049b5c:	8d 50 9f             	lea    edx,[eax-0x61]
 8049b5f:	80 fa 19             	cmp    dl,0x19
 8049b62:	77 07                	ja     8049b6b <submitr+0x256>
 8049b64:	88 06                	mov    BYTE PTR [esi],al
 8049b66:	83 c6 01             	add    esi,0x1
 8049b69:	eb 55                	jmp    8049bc0 <submitr+0x2ab>
 8049b6b:	3c 20                	cmp    al,0x20
 8049b6d:	75 08                	jne    8049b77 <submitr+0x262>
 8049b6f:	c6 06 2b             	mov    BYTE PTR [esi],0x2b
 8049b72:	83 c6 01             	add    esi,0x1
 8049b75:	eb 49                	jmp    8049bc0 <submitr+0x2ab>
 8049b77:	8d 50 e0             	lea    edx,[eax-0x20]
 8049b7a:	80 fa 5f             	cmp    dl,0x5f
 8049b7d:	76 04                	jbe    8049b83 <submitr+0x26e>
 8049b7f:	3c 09                	cmp    al,0x9
 8049b81:	75 51                	jne    8049bd4 <submitr+0x2bf>
 8049b83:	0f b6 c0             	movzx  eax,al
 8049b86:	89 44 24 08          	mov    DWORD PTR [esp+0x8],eax
 8049b8a:	c7 44 24 04 ca a9 04 	mov    DWORD PTR [esp+0x4],0x804a9ca
 8049b91:	08 
 8049b92:	8d 85 c0 5f ff ff    	lea    eax,[ebp-0xa040]
 8049b98:	89 04 24             	mov    DWORD PTR [esp],eax
 8049b9b:	e8 2c ec ff ff       	call   80487cc <sprintf@plt>
 8049ba0:	0f b6 85 c0 5f ff ff 	movzx  eax,BYTE PTR [ebp-0xa040]
 8049ba7:	88 06                	mov    BYTE PTR [esi],al
 8049ba9:	0f b6 85 c1 5f ff ff 	movzx  eax,BYTE PTR [ebp-0xa03f]
 8049bb0:	88 46 01             	mov    BYTE PTR [esi+0x1],al
 8049bb3:	0f b6 85 c2 5f ff ff 	movzx  eax,BYTE PTR [ebp-0xa03e]
 8049bba:	88 46 02             	mov    BYTE PTR [esi+0x2],al
 8049bbd:	83 c6 03             	add    esi,0x3
 8049bc0:	83 c3 01             	add    ebx,0x1
 8049bc3:	3b 9d b4 5f ff ff    	cmp    ebx,DWORD PTR [ebp-0xa04c]
 8049bc9:	0f 85 69 ff ff ff    	jne    8049b38 <submitr+0x223>
 8049bcf:	e9 2a 03 00 00       	jmp    8049efe <submitr+0x5e9>
 8049bd4:	b8 b8 aa 04 08       	mov    eax,0x804aab8
 8049bd9:	b9 43 00 00 00       	mov    ecx,0x43
 8049bde:	8b 7d 20             	mov    edi,DWORD PTR [ebp+0x20]
 8049be1:	89 c6                	mov    esi,eax
 8049be3:	f3 a4                	rep movs BYTE PTR es:[edi],BYTE PTR ds:[esi]
 8049be5:	8b 85 b0 5f ff ff    	mov    eax,DWORD PTR [ebp-0xa050]
 8049beb:	89 04 24             	mov    DWORD PTR [esp],eax
 8049bee:	e8 29 ed ff ff       	call   804891c <close@plt>
 8049bf3:	b8 ff ff ff ff       	mov    eax,0xffffffff
 8049bf8:	e9 f6 02 00 00       	jmp    8049ef3 <submitr+0x5de>
 8049bfd:	01 c6                	add    esi,eax
 8049bff:	89 5c 24 08          	mov    DWORD PTR [esp+0x8],ebx
 8049c03:	89 74 24 04          	mov    DWORD PTR [esp+0x4],esi
 8049c07:	89 3c 24             	mov    DWORD PTR [esp],edi
 8049c0a:	e8 1d ec ff ff       	call   804882c <write@plt>
 8049c0f:	85 c0                	test   eax,eax
 8049c11:	7f 0f                	jg     8049c22 <submitr+0x30d>
 8049c13:	e8 a4 eb ff ff       	call   80487bc <__errno_location@plt>
 8049c18:	83 38 04             	cmp    DWORD PTR [eax],0x4
 8049c1b:	75 13                	jne    8049c30 <submitr+0x31b>
 8049c1d:	b8 00 00 00 00       	mov    eax,0x0
 8049c22:	29 c3                	sub    ebx,eax
 8049c24:	75 d7                	jne    8049bfd <submitr+0x2e8>
 8049c26:	8b bd b4 5f ff ff    	mov    edi,DWORD PTR [ebp-0xa04c]
 8049c2c:	85 ff                	test   edi,edi
 8049c2e:	79 64                	jns    8049c94 <submitr+0x37f>
 8049c30:	8b 7d 20             	mov    edi,DWORD PTR [ebp+0x20]
 8049c33:	be fc aa 04 08       	mov    esi,0x804aafc
 8049c38:	b8 2c 00 00 00       	mov    eax,0x2c
 8049c3d:	f7 c7 01 00 00 00    	test   edi,0x1
 8049c43:	74 04                	je     8049c49 <submitr+0x334>
 8049c45:	a4                   	movs   BYTE PTR es:[edi],BYTE PTR ds:[esi]
 8049c46:	83 e8 01             	sub    eax,0x1
 8049c49:	f7 c7 02 00 00 00    	test   edi,0x2
 8049c4f:	74 05                	je     8049c56 <submitr+0x341>
 8049c51:	66 a5                	movs   WORD PTR es:[edi],WORD PTR ds:[esi]
 8049c53:	83 e8 02             	sub    eax,0x2
 8049c56:	89 c1                	mov    ecx,eax
 8049c58:	c1 e9 02             	shr    ecx,0x2
 8049c5b:	f3 a5                	rep movs DWORD PTR es:[edi],DWORD PTR ds:[esi]
 8049c5d:	ba 00 00 00 00       	mov    edx,0x0
 8049c62:	a8 02                	test   al,0x2
 8049c64:	74 0b                	je     8049c71 <submitr+0x35c>
 8049c66:	0f b7 0c 16          	movzx  ecx,WORD PTR [esi+edx*1]
 8049c6a:	66 89 0c 17          	mov    WORD PTR [edi+edx*1],cx
 8049c6e:	83 c2 02             	add    edx,0x2
 8049c71:	a8 01                	test   al,0x1
 8049c73:	74 07                	je     8049c7c <submitr+0x367>
 8049c75:	0f b6 04 16          	movzx  eax,BYTE PTR [esi+edx*1]
 8049c79:	88 04 17             	mov    BYTE PTR [edi+edx*1],al
 8049c7c:	8b 8d b0 5f ff ff    	mov    ecx,DWORD PTR [ebp-0xa050]
 8049c82:	89 0c 24             	mov    DWORD PTR [esp],ecx
 8049c85:	e8 92 ec ff ff       	call   804891c <close@plt>
 8049c8a:	b8 ff ff ff ff       	mov    eax,0xffffffff
 8049c8f:	e9 5f 02 00 00       	jmp    8049ef3 <submitr+0x5de>
 8049c94:	8b b5 b0 5f ff ff    	mov    esi,DWORD PTR [ebp-0xa050]
 8049c9a:	89 b5 cc df ff ff    	mov    DWORD PTR [ebp-0x2034],esi
 8049ca0:	c7 85 d0 df ff ff 00 	mov    DWORD PTR [ebp-0x2030],0x0
 8049ca7:	00 00 00 
 8049caa:	8d 85 cc df ff ff    	lea    eax,[ebp-0x2034]
 8049cb0:	8d 95 d8 df ff ff    	lea    edx,[ebp-0x2028]
 8049cb6:	89 95 d4 df ff ff    	mov    DWORD PTR [ebp-0x202c],edx
 8049cbc:	8d 95 cc bf ff ff    	lea    edx,[ebp-0x4034]
 8049cc2:	b9 00 20 00 00       	mov    ecx,0x2000
 8049cc7:	e8 3f fb ff ff       	call   804980b <rio_readlineb>
 8049ccc:	85 c0                	test   eax,eax
 8049cce:	7f 29                	jg     8049cf9 <submitr+0x3e4>
 8049cd0:	b8 28 ab 04 08       	mov    eax,0x804ab28
 8049cd5:	b9 36 00 00 00       	mov    ecx,0x36
 8049cda:	8b 7d 20             	mov    edi,DWORD PTR [ebp+0x20]
 8049cdd:	89 c6                	mov    esi,eax
 8049cdf:	f3 a4                	rep movs BYTE PTR es:[edi],BYTE PTR ds:[esi]
 8049ce1:	8b 85 b0 5f ff ff    	mov    eax,DWORD PTR [ebp-0xa050]
 8049ce7:	89 04 24             	mov    DWORD PTR [esp],eax
 8049cea:	e8 2d ec ff ff       	call   804891c <close@plt>
 8049cef:	b8 ff ff ff ff       	mov    eax,0xffffffff
 8049cf4:	e9 fa 01 00 00       	jmp    8049ef3 <submitr+0x5de>
 8049cf9:	8d bd cc bf ff ff    	lea    edi,[ebp-0x4034]
 8049cff:	8d 85 c8 5f ff ff    	lea    eax,[ebp-0xa038]
 8049d05:	89 44 24 10          	mov    DWORD PTR [esp+0x10],eax
 8049d09:	8d 85 c8 7f ff ff    	lea    eax,[ebp-0x8038]
 8049d0f:	89 44 24 0c          	mov    DWORD PTR [esp+0xc],eax
 8049d13:	8d 85 cc 7f ff ff    	lea    eax,[ebp-0x8034]
 8049d19:	89 44 24 08          	mov    DWORD PTR [esp+0x8],eax
 8049d1d:	c7 44 24 04 d1 a9 04 	mov    DWORD PTR [esp+0x4],0x804a9d1
 8049d24:	08 
 8049d25:	89 3c 24             	mov    DWORD PTR [esp],edi
 8049d28:	e8 df ea ff ff       	call   804880c <__isoc99_sscanf@plt>
 8049d2d:	8b 85 c8 7f ff ff    	mov    eax,DWORD PTR [ebp-0x8038]
 8049d33:	8d 9d cc bf ff ff    	lea    ebx,[ebp-0x4034]
 8049d39:	8d b5 cc df ff ff    	lea    esi,[ebp-0x2034]
 8049d3f:	3d c8 00 00 00       	cmp    eax,0xc8
 8049d44:	0f 84 bd 00 00 00    	je     8049e07 <submitr+0x4f2>
 8049d4a:	8d 95 c8 5f ff ff    	lea    edx,[ebp-0xa038]
 8049d50:	89 54 24 0c          	mov    DWORD PTR [esp+0xc],edx
 8049d54:	89 44 24 08          	mov    DWORD PTR [esp+0x8],eax
 8049d58:	c7 44 24 04 60 ab 04 	mov    DWORD PTR [esp+0x4],0x804ab60
 8049d5f:	08 
 8049d60:	8b 4d 20             	mov    ecx,DWORD PTR [ebp+0x20]
 8049d63:	89 0c 24             	mov    DWORD PTR [esp],ecx
 8049d66:	e8 61 ea ff ff       	call   80487cc <sprintf@plt>
 8049d6b:	8b b5 b0 5f ff ff    	mov    esi,DWORD PTR [ebp-0xa050]
 8049d71:	89 34 24             	mov    DWORD PTR [esp],esi
 8049d74:	e8 a3 eb ff ff       	call   804891c <close@plt>
 8049d79:	b8 ff ff ff ff       	mov    eax,0xffffffff
 8049d7e:	e9 70 01 00 00       	jmp    8049ef3 <submitr+0x5de>
 8049d83:	b9 00 20 00 00       	mov    ecx,0x2000
 8049d88:	89 da                	mov    edx,ebx
 8049d8a:	89 f0                	mov    eax,esi
 8049d8c:	e8 7a fa ff ff       	call   804980b <rio_readlineb>
 8049d91:	85 c0                	test   eax,eax
 8049d93:	7f 72                	jg     8049e07 <submitr+0x4f2>
 8049d95:	8b 7d 20             	mov    edi,DWORD PTR [ebp+0x20]
 8049d98:	c7 07 45 72 72 6f    	mov    DWORD PTR [edi],0x6f727245
 8049d9e:	c7 47 04 72 3a 20 43 	mov    DWORD PTR [edi+0x4],0x43203a72
 8049da5:	c7 47 08 6c 69 65 6e 	mov    DWORD PTR [edi+0x8],0x6e65696c
 8049dac:	c7 47 0c 74 20 75 6e 	mov    DWORD PTR [edi+0xc],0x6e752074
 8049db3:	c7 47 10 61 62 6c 65 	mov    DWORD PTR [edi+0x10],0x656c6261
 8049dba:	c7 47 14 20 74 6f 20 	mov    DWORD PTR [edi+0x14],0x206f7420
 8049dc1:	c7 47 18 72 65 61 64 	mov    DWORD PTR [edi+0x18],0x64616572
 8049dc8:	c7 47 1c 20 68 65 61 	mov    DWORD PTR [edi+0x1c],0x61656820
 8049dcf:	c7 47 20 64 65 72 73 	mov    DWORD PTR [edi+0x20],0x73726564
 8049dd6:	c7 47 24 20 66 72 6f 	mov    DWORD PTR [edi+0x24],0x6f726620
 8049ddd:	c7 47 28 6d 20 73 65 	mov    DWORD PTR [edi+0x28],0x6573206d
 8049de4:	c7 47 2c 72 76 65 72 	mov    DWORD PTR [edi+0x2c],0x72657672
 8049deb:	c6 47 30 00          	mov    BYTE PTR [edi+0x30],0x0
 8049def:	8b 85 b0 5f ff ff    	mov    eax,DWORD PTR [ebp-0xa050]
 8049df5:	89 04 24             	mov    DWORD PTR [esp],eax
 8049df8:	e8 1f eb ff ff       	call   804891c <close@plt>
 8049dfd:	b8 ff ff ff ff       	mov    eax,0xffffffff
 8049e02:	e9 ec 00 00 00       	jmp    8049ef3 <submitr+0x5de>
 8049e07:	b8 e2 a9 04 08       	mov    eax,0x804a9e2
 8049e0c:	0f b6 13             	movzx  edx,BYTE PTR [ebx]
 8049e0f:	3a 10                	cmp    dl,BYTE PTR [eax]
 8049e11:	0f 85 6c ff ff ff    	jne    8049d83 <submitr+0x46e>
 8049e17:	0f b6 53 01          	movzx  edx,BYTE PTR [ebx+0x1]
 8049e1b:	3a 50 01             	cmp    dl,BYTE PTR [eax+0x1]
 8049e1e:	0f 85 5f ff ff ff    	jne    8049d83 <submitr+0x46e>
 8049e24:	0f b6 53 02          	movzx  edx,BYTE PTR [ebx+0x2]
 8049e28:	3a 50 02             	cmp    dl,BYTE PTR [eax+0x2]
 8049e2b:	0f 85 52 ff ff ff    	jne    8049d83 <submitr+0x46e>
 8049e31:	8d 95 cc bf ff ff    	lea    edx,[ebp-0x4034]
 8049e37:	8d 85 cc df ff ff    	lea    eax,[ebp-0x2034]
 8049e3d:	b9 00 20 00 00       	mov    ecx,0x2000
 8049e42:	e8 c4 f9 ff ff       	call   804980b <rio_readlineb>
 8049e47:	85 c0                	test   eax,eax
 8049e49:	7f 61                	jg     8049eac <submitr+0x597>
 8049e4b:	8b 7d 20             	mov    edi,DWORD PTR [ebp+0x20]
 8049e4e:	be 90 ab 04 08       	mov    esi,0x804ab90
 8049e53:	b8 38 00 00 00       	mov    eax,0x38
 8049e58:	f7 c7 01 00 00 00    	test   edi,0x1
 8049e5e:	74 04                	je     8049e64 <submitr+0x54f>
 8049e60:	a4                   	movs   BYTE PTR es:[edi],BYTE PTR ds:[esi]
 8049e61:	83 e8 01             	sub    eax,0x1
 8049e64:	f7 c7 02 00 00 00    	test   edi,0x2
 8049e6a:	74 05                	je     8049e71 <submitr+0x55c>
 8049e6c:	66 a5                	movs   WORD PTR es:[edi],WORD PTR ds:[esi]
 8049e6e:	83 e8 02             	sub    eax,0x2
 8049e71:	89 c1                	mov    ecx,eax
 8049e73:	c1 e9 02             	shr    ecx,0x2
 8049e76:	f3 a5                	rep movs DWORD PTR es:[edi],DWORD PTR ds:[esi]
 8049e78:	ba 00 00 00 00       	mov    edx,0x0
 8049e7d:	a8 02                	test   al,0x2
 8049e7f:	74 0b                	je     8049e8c <submitr+0x577>
 8049e81:	0f b7 0c 16          	movzx  ecx,WORD PTR [esi+edx*1]
 8049e85:	66 89 0c 17          	mov    WORD PTR [edi+edx*1],cx
 8049e89:	83 c2 02             	add    edx,0x2
 8049e8c:	a8 01                	test   al,0x1
 8049e8e:	74 07                	je     8049e97 <submitr+0x582>
 8049e90:	0f b6 04 16          	movzx  eax,BYTE PTR [esi+edx*1]
 8049e94:	88 04 17             	mov    BYTE PTR [edi+edx*1],al
 8049e97:	8b 8d b0 5f ff ff    	mov    ecx,DWORD PTR [ebp-0xa050]
 8049e9d:	89 0c 24             	mov    DWORD PTR [esp],ecx
 8049ea0:	e8 77 ea ff ff       	call   804891c <close@plt>
 8049ea5:	b8 ff ff ff ff       	mov    eax,0xffffffff
 8049eaa:	eb 47                	jmp    8049ef3 <submitr+0x5de>
 8049eac:	89 7c 24 04          	mov    DWORD PTR [esp+0x4],edi
 8049eb0:	8b 75 20             	mov    esi,DWORD PTR [ebp+0x20]
 8049eb3:	89 34 24             	mov    DWORD PTR [esp],esi
 8049eb6:	e8 31 ea ff ff       	call   80488ec <strcpy@plt>
 8049ebb:	8b bd b0 5f ff ff    	mov    edi,DWORD PTR [ebp-0xa050]
 8049ec1:	89 3c 24             	mov    DWORD PTR [esp],edi
 8049ec4:	e8 53 ea ff ff       	call   804891c <close@plt>
 8049ec9:	b8 e5 a9 04 08       	mov    eax,0x804a9e5
 8049ece:	0f b6 0e             	movzx  ecx,BYTE PTR [esi]
 8049ed1:	3a 08                	cmp    cl,BYTE PTR [eax]
 8049ed3:	75 19                	jne    8049eee <submitr+0x5d9>
 8049ed5:	0f b6 4e 01          	movzx  ecx,BYTE PTR [esi+0x1]
 8049ed9:	3a 48 01             	cmp    cl,BYTE PTR [eax+0x1]
 8049edc:	75 10                	jne    8049eee <submitr+0x5d9>
 8049ede:	0f b6 56 02          	movzx  edx,BYTE PTR [esi+0x2]
 8049ee2:	3a 50 02             	cmp    dl,BYTE PTR [eax+0x2]
 8049ee5:	75 07                	jne    8049eee <submitr+0x5d9>
 8049ee7:	b8 00 00 00 00       	mov    eax,0x0
 8049eec:	eb 05                	jmp    8049ef3 <submitr+0x5de>
 8049eee:	b8 ff ff ff ff       	mov    eax,0xffffffff
 8049ef3:	81 c4 6c a0 00 00    	add    esp,0xa06c
 8049ef9:	5b                   	pop    ebx
 8049efa:	5e                   	pop    esi
 8049efb:	5f                   	pop    edi
 8049efc:	5d                   	pop    ebp
 8049efd:	c3                   	ret    
 8049efe:	8d 85 cc 9f ff ff    	lea    eax,[ebp-0x6034]
 8049f04:	89 44 24 14          	mov    DWORD PTR [esp+0x14],eax
 8049f08:	8b 45 18             	mov    eax,DWORD PTR [ebp+0x18]
 8049f0b:	89 44 24 10          	mov    DWORD PTR [esp+0x10],eax
 8049f0f:	8b 4d 14             	mov    ecx,DWORD PTR [ebp+0x14]
 8049f12:	89 4c 24 0c          	mov    DWORD PTR [esp+0xc],ecx
 8049f16:	8b 75 10             	mov    esi,DWORD PTR [ebp+0x10]
 8049f19:	89 74 24 08          	mov    DWORD PTR [esp+0x8],esi
 8049f1d:	c7 44 24 04 c8 ab 04 	mov    DWORD PTR [esp+0x4],0x804abc8
 8049f24:	08 
 8049f25:	8d bd cc bf ff ff    	lea    edi,[ebp-0x4034]
 8049f2b:	89 3c 24             	mov    DWORD PTR [esp],edi
 8049f2e:	e8 99 e8 ff ff       	call   80487cc <sprintf@plt>
 8049f33:	b8 00 00 00 00       	mov    eax,0x0
 8049f38:	b9 ff ff ff ff       	mov    ecx,0xffffffff
 8049f3d:	f2 ae                	repnz scas al,BYTE PTR es:[edi]
 8049f3f:	f7 d1                	not    ecx
 8049f41:	89 cf                	mov    edi,ecx
 8049f43:	83 ef 01             	sub    edi,0x1
 8049f46:	0f 84 48 fd ff ff    	je     8049c94 <submitr+0x37f>
 8049f4c:	89 fb                	mov    ebx,edi
 8049f4e:	8d b5 cc bf ff ff    	lea    esi,[ebp-0x4034]
 8049f54:	89 bd b4 5f ff ff    	mov    DWORD PTR [ebp-0xa04c],edi
 8049f5a:	8b bd b0 5f ff ff    	mov    edi,DWORD PTR [ebp-0xa050]
 8049f60:	e9 9a fc ff ff       	jmp    8049bff <submitr+0x2ea>

08049f65 <driver_post>:
 8049f65:	55                   	push   ebp
 8049f66:	89 e5                	mov    ebp,esp
 8049f68:	53                   	push   ebx
 8049f69:	83 ec 24             	sub    esp,0x24
 8049f6c:	8b 45 08             	mov    eax,DWORD PTR [ebp+0x8]
 8049f6f:	8b 55 0c             	mov    edx,DWORD PTR [ebp+0xc]
 8049f72:	8b 5d 14             	mov    ebx,DWORD PTR [ebp+0x14]
 8049f75:	83 7d 10 00          	cmp    DWORD PTR [ebp+0x10],0x0
 8049f79:	74 20                	je     8049f9b <driver_post+0x36>
 8049f7b:	89 54 24 04          	mov    DWORD PTR [esp+0x4],edx
 8049f7f:	c7 04 24 e8 a9 04 08 	mov    DWORD PTR [esp],0x804a9e8
 8049f86:	e8 71 e9 ff ff       	call   80488fc <printf@plt>
 8049f8b:	66 c7 03 4f 4b       	mov    WORD PTR [ebx],0x4b4f
 8049f90:	c6 43 02 00          	mov    BYTE PTR [ebx+0x2],0x0
 8049f94:	b8 00 00 00 00       	mov    eax,0x0
 8049f99:	eb 49                	jmp    8049fe4 <driver_post+0x7f>
 8049f9b:	85 c0                	test   eax,eax
 8049f9d:	74 37                	je     8049fd6 <driver_post+0x71>
 8049f9f:	80 38 00             	cmp    BYTE PTR [eax],0x0
 8049fa2:	74 32                	je     8049fd6 <driver_post+0x71>
 8049fa4:	89 5c 24 18          	mov    DWORD PTR [esp+0x18],ebx
 8049fa8:	89 54 24 14          	mov    DWORD PTR [esp+0x14],edx
 8049fac:	c7 44 24 10 ff a9 04 	mov    DWORD PTR [esp+0x10],0x804a9ff
 8049fb3:	08 
 8049fb4:	89 44 24 0c          	mov    DWORD PTR [esp+0xc],eax
 8049fb8:	c7 44 24 08 08 aa 04 	mov    DWORD PTR [esp+0x8],0x804aa08
 8049fbf:	08 
 8049fc0:	c7 44 24 04 6e 3b 00 	mov    DWORD PTR [esp+0x4],0x3b6e
 8049fc7:	00 
 8049fc8:	c7 04 24 c6 a5 04 08 	mov    DWORD PTR [esp],0x804a5c6
 8049fcf:	e8 41 f9 ff ff       	call   8049915 <submitr>
 8049fd4:	eb 0e                	jmp    8049fe4 <driver_post+0x7f>
 8049fd6:	66 c7 03 4f 4b       	mov    WORD PTR [ebx],0x4b4f
 8049fdb:	c6 43 02 00          	mov    BYTE PTR [ebx+0x2],0x0
 8049fdf:	b8 00 00 00 00       	mov    eax,0x0
 8049fe4:	83 c4 24             	add    esp,0x24
 8049fe7:	5b                   	pop    ebx
 8049fe8:	5d                   	pop    ebp
 8049fe9:	c3                   	ret    

08049fea <sigalrm_handler>:
 8049fea:	55                   	push   ebp
 8049feb:	89 e5                	mov    ebp,esp
 8049fed:	83 ec 18             	sub    esp,0x18
 8049ff0:	c7 44 24 08 00 00 00 	mov    DWORD PTR [esp+0x8],0x0
 8049ff7:	00 
 8049ff8:	c7 44 24 04 14 ac 04 	mov    DWORD PTR [esp+0x4],0x804ac14
 8049fff:	08 
 804a000:	a1 c0 b8 04 08       	mov    eax,ds:0x804b8c0
 804a005:	89 04 24             	mov    DWORD PTR [esp],eax
 804a008:	e8 1f e9 ff ff       	call   804892c <fprintf@plt>
 804a00d:	c7 04 24 01 00 00 00 	mov    DWORD PTR [esp],0x1
 804a014:	e8 63 e9 ff ff       	call   804897c <exit@plt>
 804a019:	90                   	nop
 804a01a:	90                   	nop
 804a01b:	90                   	nop
 804a01c:	90                   	nop
 804a01d:	90                   	nop
 804a01e:	90                   	nop
 804a01f:	90                   	nop

0804a020 <__libc_csu_fini>:
 804a020:	55                   	push   ebp
 804a021:	89 e5                	mov    ebp,esp
 804a023:	5d                   	pop    ebp
 804a024:	c3                   	ret    
 804a025:	8d 74 26 00          	lea    esi,[esi+eiz*1+0x0]
 804a029:	8d bc 27 00 00 00 00 	lea    edi,[edi+eiz*1+0x0]

0804a030 <__libc_csu_init>:
 804a030:	55                   	push   ebp
 804a031:	89 e5                	mov    ebp,esp
 804a033:	57                   	push   edi
 804a034:	56                   	push   esi
 804a035:	53                   	push   ebx
 804a036:	e8 4f 00 00 00       	call   804a08a <__i686.get_pc_thunk.bx>
 804a03b:	81 c3 ad 10 00 00    	add    ebx,0x10ad
 804a041:	83 ec 1c             	sub    esp,0x1c
 804a044:	e8 33 e7 ff ff       	call   804877c <_init>
 804a049:	8d bb 18 ff ff ff    	lea    edi,[ebx-0xe8]
 804a04f:	8d 83 18 ff ff ff    	lea    eax,[ebx-0xe8]
 804a055:	29 c7                	sub    edi,eax
 804a057:	c1 ff 02             	sar    edi,0x2
 804a05a:	85 ff                	test   edi,edi
 804a05c:	74 24                	je     804a082 <__libc_csu_init+0x52>
 804a05e:	31 f6                	xor    esi,esi
 804a060:	8b 45 10             	mov    eax,DWORD PTR [ebp+0x10]
 804a063:	89 44 24 08          	mov    DWORD PTR [esp+0x8],eax
 804a067:	8b 45 0c             	mov    eax,DWORD PTR [ebp+0xc]
 804a06a:	89 44 24 04          	mov    DWORD PTR [esp+0x4],eax
 804a06e:	8b 45 08             	mov    eax,DWORD PTR [ebp+0x8]
 804a071:	89 04 24             	mov    DWORD PTR [esp],eax
 804a074:	ff 94 b3 18 ff ff ff 	call   DWORD PTR [ebx+esi*4-0xe8]
 804a07b:	83 c6 01             	add    esi,0x1
 804a07e:	39 fe                	cmp    esi,edi
 804a080:	72 de                	jb     804a060 <__libc_csu_init+0x30>
 804a082:	83 c4 1c             	add    esp,0x1c
 804a085:	5b                   	pop    ebx
 804a086:	5e                   	pop    esi
 804a087:	5f                   	pop    edi
 804a088:	5d                   	pop    ebp
 804a089:	c3                   	ret    

0804a08a <__i686.get_pc_thunk.bx>:
 804a08a:	8b 1c 24             	mov    ebx,DWORD PTR [esp]
 804a08d:	c3                   	ret    
 804a08e:	90                   	nop
 804a08f:	90                   	nop

0804a090 <__do_global_ctors_aux>:
 804a090:	55                   	push   ebp
 804a091:	89 e5                	mov    ebp,esp
 804a093:	53                   	push   ebx
 804a094:	83 ec 04             	sub    esp,0x4
 804a097:	a1 00 b0 04 08       	mov    eax,ds:0x804b000
 804a09c:	83 f8 ff             	cmp    eax,0xffffffff
 804a09f:	74 13                	je     804a0b4 <__do_global_ctors_aux+0x24>
 804a0a1:	bb 00 b0 04 08       	mov    ebx,0x804b000
 804a0a6:	66 90                	xchg   ax,ax
 804a0a8:	83 eb 04             	sub    ebx,0x4
 804a0ab:	ff d0                	call   eax
 804a0ad:	8b 03                	mov    eax,DWORD PTR [ebx]
 804a0af:	83 f8 ff             	cmp    eax,0xffffffff
 804a0b2:	75 f4                	jne    804a0a8 <__do_global_ctors_aux+0x18>
 804a0b4:	83 c4 04             	add    esp,0x4
 804a0b7:	5b                   	pop    ebx
 804a0b8:	5d                   	pop    ebp
 804a0b9:	c3                   	ret    
 804a0ba:	90                   	nop
 804a0bb:	90                   	nop

Disassembly of section .fini:

0804a0bc <_fini>:
 804a0bc:	55                   	push   ebp
 804a0bd:	89 e5                	mov    ebp,esp
 804a0bf:	53                   	push   ebx
 804a0c0:	83 ec 04             	sub    esp,0x4
 804a0c3:	e8 00 00 00 00       	call   804a0c8 <_fini+0xc>
 804a0c8:	5b                   	pop    ebx
 804a0c9:	81 c3 20 10 00 00    	add    ebx,0x1020
 804a0cf:	e8 ec e8 ff ff       	call   80489c0 <__do_global_dtors_aux>
 804a0d4:	59                   	pop    ecx
 804a0d5:	5b                   	pop    ebx
 804a0d6:	c9                   	leave  
 804a0d7:	c3                   	ret    
